
========================================================================

** ELF Header Information

    File Name: .\obj\RTOSDemo.axf

    Machine class: ELFCLASS32 (32-bit)
    Data encoding: ELFDATA2LSB (Little endian)
    Header version: EV_CURRENT (Current version)
    Operating System ABI: none
    ABI Version: 0
    File Type: ET_EXEC (Executable) (2)
    Machine: EM_ARM (ARM)

    Image Entry point: 0x00000141
    Flags: EF_ARM_HASENTRY (0x05000002)

    ARM ELF revision: 5 (ABI version 2)

    Conforms to Base float procedure-call standard

    Built with
    Component: ARM Compiler 5.06 update 7 (build 960) Tool: armasm [4d35fa]
    Component: ARM Compiler 5.06 update 7 (build 960) Tool: armlink [4d3601]

    Header size: 52 bytes (0x34)
    Program header entry size: 32 bytes (0x20)
    Section header entry size: 40 bytes (0x28)

    Program header entries: 1
    Section header entries: 16

    Program header offset: 933544 (0x000e3ea8)
    Section header offset: 933576 (0x000e3ec8)

    Section header string table index: 15

========================================================================

** Program header #0 (PT_LOAD) [PF_X + PF_W + PF_R + PF_ARM_ENTRY]
    Size : 23456 bytes (13860 bytes in file)
    Virtual address: 0x00000000 (Alignment 8)


========================================================================

** Section #1 'ER_IROM1' (SHT_PROGBITS) [SHF_ALLOC + SHF_EXECINSTR]
    Size   : 13616 bytes (alignment 4)
    Address: 0x00000000

    $d.realdata
    RESET
    __Vectors
        0x00000000:    20002670    p&.     DCD    536880752
        0x00000004:    00000305    ....    DCD    773
        0x00000008:    00000337    7...    DCD    823
        0x0000000c:    00000201    ....    DCD    513
        0x00000010:    0000033b    ;...    DCD    827
        0x00000014:    0000033d    =...    DCD    829
        0x00000018:    0000033f    ?...    DCD    831
        0x0000001c:    00000000    ....    DCD    0
        0x00000020:    00000000    ....    DCD    0
        0x00000024:    00000000    ....    DCD    0
        0x00000028:    00000000    ....    DCD    0
        0x0000002c:    00000159    Y...    DCD    345
        0x00000030:    00000343    C...    DCD    835
        0x00000034:    00000000    ....    DCD    0
        0x00000038:    0000019d    ....    DCD    413
        0x0000003c:    0000222d    -"..    DCD    8749
        0x00000040:    00000349    I...    DCD    841
        0x00000044:    00000349    I...    DCD    841
        0x00000048:    00000349    I...    DCD    841
        0x0000004c:    00000349    I...    DCD    841
        0x00000050:    00000349    I...    DCD    841
        0x00000054:    00000349    I...    DCD    841
        0x00000058:    00000349    I...    DCD    841
        0x0000005c:    00000349    I...    DCD    841
        0x00000060:    00000349    I...    DCD    841
        0x00000064:    00000349    I...    DCD    841
        0x00000068:    00000349    I...    DCD    841
        0x0000006c:    00000349    I...    DCD    841
        0x00000070:    00000349    I...    DCD    841
        0x00000074:    00000349    I...    DCD    841
        0x00000078:    00000349    I...    DCD    841
        0x0000007c:    00000349    I...    DCD    841
        0x00000080:    00000349    I...    DCD    841
        0x00000084:    00000349    I...    DCD    841
        0x00000088:    00000349    I...    DCD    841
        0x0000008c:    00000349    I...    DCD    841
        0x00000090:    00000349    I...    DCD    841
        0x00000094:    00000349    I...    DCD    841
        0x00000098:    00000349    I...    DCD    841
        0x0000009c:    00000349    I...    DCD    841
        0x000000a0:    00000349    I...    DCD    841
        0x000000a4:    00000349    I...    DCD    841
        0x000000a8:    00000349    I...    DCD    841
        0x000000ac:    00000349    I...    DCD    841
        0x000000b0:    00000349    I...    DCD    841
        0x000000b4:    00000349    I...    DCD    841
        0x000000b8:    00000349    I...    DCD    841
        0x000000bc:    00000349    I...    DCD    841
        0x000000c0:    00000349    I...    DCD    841
        0x000000c4:    00000b41    A...    DCD    2881
        0x000000c8:    00000349    I...    DCD    841
        0x000000cc:    00000349    I...    DCD    841
        0x000000d0:    00000349    I...    DCD    841
        0x000000d4:    00000349    I...    DCD    841
        0x000000d8:    00000349    I...    DCD    841
        0x000000dc:    00000349    I...    DCD    841
        0x000000e0:    00000349    I...    DCD    841
        0x000000e4:    00000349    I...    DCD    841
        0x000000e8:    00000349    I...    DCD    841
        0x000000ec:    00000349    I...    DCD    841
        0x000000f0:    00000349    I...    DCD    841
        0x000000f4:    00000349    I...    DCD    841
        0x000000f8:    00000349    I...    DCD    841
        0x000000fc:    00000349    I...    DCD    841
        0x00000100:    00000349    I...    DCD    841
        0x00000104:    00000349    I...    DCD    841
        0x00000108:    00000349    I...    DCD    841
        0x0000010c:    00000349    I...    DCD    841
        0x00000110:    00000349    I...    DCD    841
        0x00000114:    00000349    I...    DCD    841
        0x00000118:    00000349    I...    DCD    841
        0x0000011c:    00000349    I...    DCD    841
        0x00000120:    00000349    I...    DCD    841
        0x00000124:    00000349    I...    DCD    841
        0x00000128:    00000349    I...    DCD    841
        0x0000012c:    00000349    I...    DCD    841
        0x00000130:    00000349    I...    DCD    841
        0x00000134:    00000349    I...    DCD    841
        0x00000138:    00000349    I...    DCD    841
        0x0000013c:    00000349    I...    DCD    841
    $t
    .ARM.Collect$$$$00000000
    .ARM.Collect$$$$00000001
    __Vectors_End
    __main
    _main_stk
        0x00000140:    f8dfd010    ....    LDR      sp,__lit__00000000 ; [0x154] = 0x20002670
    .ARM.Collect$$$$00000004
    _main_scatterload
        0x00000144:    f002ffde    ....    BL       __scatterload ; 0x3104
    .ARM.Collect$$$$00000008
    .ARM.Collect$$$$0000000A
    .ARM.Collect$$$$0000000B
    __main_after_scatterload
    _main_clock
    _main_cpp_init
    _main_init
        0x00000148:    4800        .H      LDR      r0,[pc,#0] ; [0x14c] = 0x41d
        0x0000014a:    4700        .G      BX       r0
    $d
        0x0000014c:    0000041d    ....    DCD    1053
    $t
    .ARM.Collect$$$$0000000E
    __rt_lib_shutdown_fini
        0x00000150:    f3af8000    ....    NOP.W    
    $d
    .ARM.Collect$$$$00002712
    __lit__00000000
    .ARM.Collect$$$$0000000F
    .ARM.Collect$$$$00000011
    __rt_final_cpp
    __rt_final_exit
        0x00000154:    20002670    p&.     DCD    536880752
    $t
    .emb_text
    $v0
    SVC_Handler
        0x00000158:    4b23        #K      LDR      r3,[pc,#140] ; [0x1e8] = 0x20000084
        0x0000015a:    6819        .h      LDR      r1,[r3,#0]
        0x0000015c:    6808        .h      LDR      r0,[r1,#0]
        0x0000015e:    e8b04ff0    ...O    LDM      r0!,{r4-r11,lr}
        0x00000162:    f3808809    ....    MSR      PSP,r0
        0x00000166:    f04f0000    O...    MOV      r0,#0
        0x0000016a:    f3808811    ....    MSR      BASEPRI,r0
        0x0000016e:    4770        pG      BX       lr
    $d
        0x00000170:    00000000    ....    DCD    0
    $t
    __asm___6_port_c_39a90d8d__prvStartFirstTask
        0x00000174:    4803        .H      LDR      r0,[pc,#12] ; [0x184] = 0xe000ed08
        0x00000176:    6800        .h      LDR      r0,[r0,#0]
        0x00000178:    6800        .h      LDR      r0,[r0,#0]
        0x0000017a:    f3808808    ....    MSR      MSP,r0
        0x0000017e:    b662        b.      CPSIE    i
        0x00000180:    df00        ..      SVC      #0x0 ; formerly SWI
        0x00000182:    bf00        ..      NOP      
    $d
        0x00000184:    e000ed08    ....    DCD    3758157064
    $t
    __asm___6_port_c_39a90d8d__prvEnableVFP
        0x00000188:    f8df000c    ....    LDR.W    r0,[pc,#12] ; [0x198] = 0xe000ed88
        0x0000018c:    6801        .h      LDR      r1,[r0,#0]
        0x0000018e:    f4410170    A.p.    ORR      r1,r1,#0xf00000
        0x00000192:    6001        .`      STR      r1,[r0,#0]
        0x00000194:    4770        pG      BX       lr
        0x00000196:    bf00        ..      NOP      
    $d
        0x00000198:    e000ed88    ....    DCD    3758157192
    $t
    PendSV_Handler
        0x0000019c:    f3ef8009    ....    MRS      r0,PSP
        0x000001a0:    4b11        .K      LDR      r3,[pc,#68] ; [0x1e8] = 0x20000084
        0x000001a2:    681a        .h      LDR      r2,[r3,#0]
        0x000001a4:    f01e0f10    ....    TST      lr,#0x10
        0x000001a8:    bf08        ..      IT       EQ
        0x000001aa:    ed208a10     ...    VSTMDBEQ r0!,{s16-s31}
        0x000001ae:    e9204ff0     ..O    STMDB    r0!,{r4-r11,lr}
        0x000001b2:    6010        .`      STR      r0,[r2,#0]
        0x000001b4:    b508        ..      PUSH     {r3,lr}
        0x000001b6:    f04f0050    O.P.    MOV      r0,#0x50
        0x000001ba:    f3808811    ....    MSR      BASEPRI,r0
        0x000001be:    f000ff99    ....    BL       vTaskSwitchContext ; 0x10f4
        0x000001c2:    f04f0000    O...    MOV      r0,#0
        0x000001c6:    f3808811    ....    MSR      BASEPRI,r0
        0x000001ca:    e8bd4008    ...@    POP      {r3,lr}
        0x000001ce:    6819        .h      LDR      r1,[r3,#0]
        0x000001d0:    6808        .h      LDR      r0,[r1,#0]
        0x000001d2:    e8b04ff0    ...O    LDM      r0!,{r4-r11,lr}
        0x000001d6:    f01e0f10    ....    TST      lr,#0x10
        0x000001da:    bf08        ..      IT       EQ
        0x000001dc:    ecb08a10    ....    VLDMEQ   r0!,{s16-s31}
        0x000001e0:    f3808809    ....    MSR      PSP,r0
        0x000001e4:    4770        pG      BX       lr
        0x000001e6:    bf00        ..      NOP      
    $d
        0x000001e8:    20000084    ...     DCD    536871044
    $t
    ulPortSetInterruptMask
        0x000001ec:    f3ef8011    ....    MRS      r0,BASEPRI
        0x000001f0:    f04f0150    O.P.    MOV      r1,#0x50
        0x000001f4:    f3818811    ....    MSR      BASEPRI,r1
        0x000001f8:    4770        pG      BX       lr
    vPortClearInterruptMask
        0x000001fa:    f3808811    ....    MSR      BASEPRI,r0
        0x000001fe:    4770        pG      BX       lr
    .emb_text
    $v0
    HardFault_Handler
        0x00000200:    2004        .       MOVS     r0,#4
        0x00000202:    4671        qF      MOV      r1,lr
        0x00000204:    4208        .B      TST      r0,r1
        0x00000206:    d002        ..      BEQ      0x20e ; HardFault_Handler + 14
        0x00000208:    f3ef8009    ....    MRS      r0,PSP
        0x0000020c:    e001        ..      B        0x212 ; HardFault_Handler + 18
        0x0000020e:    f3ef8008    ....    MRS      r0,MSP
        0x00000212:    4671        qF      MOV      r1,lr
        0x00000214:    4a00        .J      LDR      r2,[pc,#0] ; [0x218] = 0x2359
        0x00000216:    4710        .G      BX       r2
    $d
        0x00000218:    00002359    Y#..    DCD    9049
    $t
    .text
    SystemCoreClockUpdate
        0x0000021c:    b518        ..      PUSH     {r3,r4,lr}
        0x0000021e:    a033        3.      ADR      r0,{pc}+0xce ; 0x2ec
        0x00000220:    f04f4480    O..D    MOV      r4,#0x40000000
        0x00000224:    6800        .h      LDR      r0,[r0,#0]
        0x00000226:    9000        ..      STR      r0,[sp,#0]
        0x00000228:    f8d40240    ..@.    LDR      r0,[r4,#0x240]
        0x0000022c:    f4102fa0    .../    TST      r0,#0x50000
        0x00000230:    d001        ..      BEQ      0x236 ; SystemCoreClockUpdate + 26
        0x00000232:    2100        .!      MOVS     r1,#0
        0x00000234:    e017        ..      B        0x266 ; SystemCoreClockUpdate + 74
        0x00000236:    0301        ..      LSLS     r1,r0,#12
        0x00000238:    d501        ..      BPL      0x23e ; SystemCoreClockUpdate + 34
        0x0000023a:    492d        -I      LDR      r1,[pc,#180] ; [0x2f0] = 0x1518000
        0x0000023c:    e000        ..      B        0x240 ; SystemCoreClockUpdate + 36
        0x0000023e:    492d        -I      LDR      r1,[pc,#180] ; [0x2f4] = 0xb71b00
        0x00000240:    0382        ..      LSLS     r2,r0,#14
        0x00000242:    d410        ..      BMI      0x266 ; SystemCoreClockUpdate + 74
        0x00000244:    f3c00208    ....    UBFX     r2,r0,#0,#9
        0x00000248:    f3c03381    ...3    UBFX     r3,r0,#14,#2
        0x0000024c:    0889        ..      LSRS     r1,r1,#2
        0x0000024e:    1c92        ..      ADDS     r2,r2,#2
        0x00000250:    f81d3003    ...0    LDRB     r3,[sp,r3]
        0x00000254:    f3c02044    ..D     UBFX     r0,r0,#9,#5
        0x00000258:    4351        QC      MULS     r1,r2,r1
        0x0000025a:    1c80        ..      ADDS     r0,r0,#2
        0x0000025c:    fb10f003    ....    SMULBB   r0,r0,r3
        0x00000260:    fbb1f0f0    ....    UDIV     r0,r1,r0
        0x00000264:    0081        ..      LSLS     r1,r0,#2
        0x00000266:    4a24        $J      LDR      r2,[pc,#144] ; [0x2f8] = 0x20000000
        0x00000268:    6091        .`      STR      r1,[r2,#8]
        0x0000026a:    f8d40210    ....    LDR      r0,[r4,#0x210]
        0x0000026e:    f0000007    ....    AND      r0,r0,#7
        0x00000272:    2802        .(      CMP      r0,#2
        0x00000274:    d003        ..      BEQ      0x27e ; SystemCoreClockUpdate + 98
        0x00000276:    f102010c    ....    ADD      r1,r2,#0xc
        0x0000027a:    f8511020    Q. .    LDR      r1,[r1,r0,LSL #2]
        0x0000027e:    f8d40220    .. .    LDR      r0,[r4,#0x220]
        0x00000282:    f000000f    ....    AND      r0,r0,#0xf
        0x00000286:    1c40        @.      ADDS     r0,r0,#1
        0x00000288:    fbb1f0f0    ....    UDIV     r0,r1,r0
        0x0000028c:    491b        .I      LDR      r1,[pc,#108] ; [0x2fc] = 0x7a120
        0x0000028e:    6010        .`      STR      r0,[r2,#0]
        0x00000290:    4408        .D      ADD      r0,r0,r1
        0x00000292:    0049        I.      LSLS     r1,r1,#1
        0x00000294:    fbb0f0f1    ....    UDIV     r0,r0,r1
        0x00000298:    6050        P`      STR      r0,[r2,#4]
        0x0000029a:    bd18        ..      POP      {r3,r4,pc}
    SystemInit
        0x0000029c:    b510        ..      PUSH     {r4,lr}
        0x0000029e:    2159        Y!      MOVS     r1,#0x59
        0x000002a0:    2216        ."      MOVS     r2,#0x16
        0x000002a2:    2388        .#      MOVS     r3,#0x88
        0x000002a4:    0788        ..      LSLS     r0,r1,#30
        0x000002a6:    f8c01100    ....    STR      r1,[r0,#0x100]
        0x000002aa:    f8c02100    ...!    STR      r2,[r0,#0x100]
        0x000002ae:    f8c03100    ...1    STR      r3,[r0,#0x100]
        0x000002b2:    f8d04100    ...A    LDR      r4,[r0,#0x100]
        0x000002b6:    2c00        .,      CMP      r4,#0
        0x000002b8:    d0f5        ..      BEQ      0x2a6 ; SystemInit + 10
        0x000002ba:    6801        .h      LDR      r1,[r0,#0]
        0x000002bc:    f6401245    @.E.    MOV      r2,#0x945
        0x000002c0:    ebb23f11    ...?    CMP      r2,r1,LSR #12
        0x000002c4:    d103        ..      BNE      0x2ce ; SystemInit + 50
        0x000002c6:    6941        Ai      LDR      r1,[r0,#0x14]
        0x000002c8:    f0410180    A...    ORR      r1,r1,#0x80
        0x000002cc:    6141        Aa      STR      r1,[r0,#0x14]
        0x000002ce:    f8d01200    ....    LDR      r1,[r0,#0x200]
        0x000002d2:    f4215180    !..Q    BIC      r1,r1,#0x1000
        0x000002d6:    f8c01200    ....    STR      r1,[r0,#0x200]
        0x000002da:    2100        .!      MOVS     r1,#0
        0x000002dc:    f8c01100    ....    STR      r1,[r0,#0x100]
        0x000002e0:    4807        .H      LDR      r0,[pc,#28] ; [0x300] = 0xe000ed88
        0x000002e2:    6801        .h      LDR      r1,[r0,#0]
        0x000002e4:    f4410170    A.p.    ORR      r1,r1,#0xf00000
        0x000002e8:    6001        .`      STR      r1,[r0,#0]
        0x000002ea:    bd10        ..      POP      {r4,pc}
    $d
        0x000002ec:    04020201    ....    DCD    67240449
        0x000002f0:    01518000    ..Q.    DCD    22118400
        0x000002f4:    00b71b00    ....    DCD    12000000
        0x000002f8:    20000000    ...     DCD    536870912
        0x000002fc:    0007a120     ...    DCD    500000
        0x00000300:    e000ed88    ....    DCD    3758157192
    $t
    .text
    $v0
    Reset_Handler
        0x00000304:    4811        .H      LDR      r0,[pc,#68] ; [0x34c] = 0x40000100
        0x00000306:    f04f0159    O.Y.    MOV      r1,#0x59
        0x0000030a:    6001        .`      STR      r1,[r0,#0]
        0x0000030c:    f04f0116    O...    MOV      r1,#0x16
        0x00000310:    6001        .`      STR      r1,[r0,#0]
        0x00000312:    f04f0188    O...    MOV      r1,#0x88
        0x00000316:    6001        .`      STR      r1,[r0,#0]
        0x00000318:    4a0d        .J      LDR      r2,[pc,#52] ; [0x350] = 0x40000024
        0x0000031a:    f64521a5    E..!    MOV      r1,#0x5aa5
        0x0000031e:    6011        .`      STR      r1,[r2,#0]
        0x00000320:    4a0c        .J      LDR      r2,[pc,#48] ; [0x354] = 0x40000200
        0x00000322:    6811        .h      LDR      r1,[r2,#0]
        0x00000324:    f4215180    !..Q    BIC      r1,r1,#0x1000
        0x00000328:    6011        .`      STR      r1,[r2,#0]
        0x0000032a:    2100        .!      MOVS     r1,#0
        0x0000032c:    6001        .`      STR      r1,[r0,#0]
        0x0000032e:    480a        .H      LDR      r0,[pc,#40] ; [0x358] = 0x29d
        0x00000330:    4780        .G      BLX      r0
        0x00000332:    480a        .H      LDR      r0,[pc,#40] ; [0x35c] = 0x141
        0x00000334:    4700        .G      BX       r0
    NMI_Handler
        0x00000336:    e7fe        ..      B        NMI_Handler ; 0x336
        0x00000338:    e7fe        ..      B        0x338 ; NMI_Handler + 2
    MemManage_Handler
        0x0000033a:    e7fe        ..      B        MemManage_Handler ; 0x33a
    BusFault_Handler
        0x0000033c:    e7fe        ..      B        BusFault_Handler ; 0x33c
    UsageFault_Handler
        0x0000033e:    e7fe        ..      B        UsageFault_Handler ; 0x33e
        0x00000340:    e7fe        ..      B        0x340 ; UsageFault_Handler + 2
    DebugMon_Handler
        0x00000342:    e7fe        ..      B        DebugMon_Handler ; 0x342
        0x00000344:    e7fe        ..      B        0x344 ; DebugMon_Handler + 2
        0x00000346:    e7fe        ..      B        0x346 ; DebugMon_Handler + 4
    Default_Handler
    ACMP01_IRQHandler
    ADC00_IRQHandler
    ADC01_IRQHandler
    ADC02_IRQHandler
    ADC03_IRQHandler
    BOD_IRQHandler
    BRAKE0_IRQHandler
    BRAKE1_IRQHandler
    CAN0_IRQHandler
    CLKFAIL_IRQHandler
    DAC_IRQHandler
    EINT0_IRQHandler
    EINT1_IRQHandler
    EINT2_IRQHandler
    EINT3_IRQHandler
    EINT4_IRQHandler
    EINT5_IRQHandler
    GPA_IRQHandler
    GPB_IRQHandler
    GPC_IRQHandler
    GPD_IRQHandler
    GPE_IRQHandler
    GPF_IRQHandler
    I2C0_IRQHandler
    I2C1_IRQHandler
    IRC_IRQHandler
    PDMA_IRQHandler
    PWM0P0_IRQHandler
    PWM0P1_IRQHandler
    PWM0P2_IRQHandler
    PWM1P0_IRQHandler
    PWM1P1_IRQHandler
    PWM1P2_IRQHandler
    PWRWU_IRQHandler
    RAMPE_IRQHandler
    RTC_IRQHandler
    SC0_IRQHandler
    SPI0_IRQHandler
    SPI1_IRQHandler
    SPI2_IRQHandler
    TAMPER_IRQHandler
    TK_IRQHandler
    TMR0_IRQHandler
    TMR2_IRQHandler
    TMR3_IRQHandler
    UART0_IRQHandler
    UART1_IRQHandler
    UART2_IRQHandler
    UART3_IRQHandler
    USBD_IRQHandler
    USBH_IRQHandler
    USBOTG_IRQHandler
    WDT_IRQHandler
    WWDT_IRQHandler
        0x00000348:    e7fe        ..      B        Default_Handler ; 0x348
    $d
        0x0000034a:    0000        ..      DCW    0
        0x0000034c:    40000100    ...@    DCD    1073742080
        0x00000350:    40000024    $..@    DCD    1073741860
        0x00000354:    40000200    ...@    DCD    1073742336
        0x00000358:    0000029d    ....    DCD    669
        0x0000035c:    00000141    A...    DCD    321
    $t
    .text
    prvSetupHardware
        0x00000360:    b570        p.      PUSH     {r4-r6,lr}
        0x00000362:    2059        Y       MOVS     r0,#0x59
        0x00000364:    0784        ..      LSLS     r4,r0,#30
        0x00000366:    2116        .!      MOVS     r1,#0x16
        0x00000368:    2288        ."      MOVS     r2,#0x88
        0x0000036a:    f8c40100    ....    STR      r0,[r4,#0x100]
        0x0000036e:    f8c41100    ....    STR      r1,[r4,#0x100]
        0x00000372:    f8c42100    ...!    STR      r2,[r4,#0x100]
        0x00000376:    f8d43100    ...1    LDR      r3,[r4,#0x100]
        0x0000037a:    2b00        .+      CMP      r3,#0
        0x0000037c:    d0f5        ..      BEQ      0x36a ; prvSetupHardware + 10
        0x0000037e:    2004        .       MOVS     r0,#4
        0x00000380:    f002fc31    ..1.    BL       CLK_EnableXtalRC ; 0x2be6
        0x00000384:    2010        .       MOVS     r0,#0x10
        0x00000386:    f002fae7    ....    BL       CLK_WaitClockReady ; 0x2958
        0x0000038a:    2100        .!      MOVS     r1,#0
        0x0000038c:    2007        .       MOVS     r0,#7
        0x0000038e:    f002faf6    ....    BL       CLK_SetHCLK ; 0x297e
        0x00000392:    2001        .       MOVS     r0,#1
        0x00000394:    f002fc27    ..'.    BL       CLK_EnableXtalRC ; 0x2be6
        0x00000398:    2001        .       MOVS     r0,#1
        0x0000039a:    f002fadd    ....    BL       CLK_WaitClockReady ; 0x2958
        0x0000039e:    4951        QI      LDR      r1,[pc,#324] ; [0x4e4] = 0x44aa200
        0x000003a0:    2000        .       MOVS     r0,#0
        0x000003a2:    f002fb26    ..&.    BL       CLK_EnablePLL ; 0x29f2
        0x000003a6:    2100        .!      MOVS     r1,#0
        0x000003a8:    2002        .       MOVS     r0,#2
        0x000003aa:    f002fae8    ....    BL       CLK_SetHCLK ; 0x297e
        0x000003ae:    4d4e        NM      LDR      r5,[pc,#312] ; [0x4e8] = 0x57803d10
        0x000003b0:    2200        ."      MOVS     r2,#0
        0x000003b2:    4611        .F      MOV      r1,r2
        0x000003b4:    4628        (F      MOV      r0,r5
        0x000003b6:    f002fa33    ..3.    BL       CLK_SetModuleClock ; 0x2820
        0x000003ba:    4e4c        LN      LDR      r6,[pc,#304] ; [0x4ec] = 0x5ec00003
        0x000003bc:    2200        ."      MOVS     r2,#0
        0x000003be:    4611        .F      MOV      r1,r2
        0x000003c0:    4630        0F      MOV      r0,r6
        0x000003c2:    f002fa2d    ..-.    BL       CLK_SetModuleClock ; 0x2820
        0x000003c6:    4628        (F      MOV      r0,r5
        0x000003c8:    f002fa4f    ..O.    BL       CLK_EnableModuleClock ; 0x286a
        0x000003cc:    4848        HH      LDR      r0,[pc,#288] ; [0x4f0] = 0x5e800002
        0x000003ce:    f002fa4c    ..L.    BL       CLK_EnableModuleClock ; 0x286a
        0x000003d2:    4630        0F      MOV      r0,r6
        0x000003d4:    f002fa49    ..I.    BL       CLK_EnableModuleClock ; 0x286a
        0x000003d8:    f7ffff20    .. .    BL       SystemCoreClockUpdate ; 0x21c
        0x000003dc:    6ca0        .l      LDR      r0,[r4,#0x48]
        0x000003de:    f02000ff     ...    BIC      r0,r0,#0xff
        0x000003e2:    64a0        .d      STR      r0,[r4,#0x48]
        0x000003e4:    6ca0        .l      LDR      r0,[r4,#0x48]
        0x000003e6:    f0400033    @.3.    ORR      r0,r0,#0x33
        0x000003ea:    64a0        .d      STR      r0,[r4,#0x48]
        0x000003ec:    2000        .       MOVS     r0,#0
        0x000003ee:    f8c40100    ....    STR      r0,[r4,#0x100]
        0x000003f2:    4c40        @L      LDR      r4,[pc,#256] ; [0x4f4] = 0x40050020
        0x000003f4:    2201        ."      MOVS     r2,#1
        0x000003f6:    06d1        ..      LSLS     r1,r2,#27
        0x000003f8:    4620         F      MOV      r0,r4
        0x000003fa:    f002fcae    ....    BL       TIMER_Open ; 0x2d5a
        0x000003fe:    6821        !h      LDR      r1,[r4,#0]
        0x00000400:    f0415100    A..Q    ORR      r1,r1,#0x20000000
        0x00000404:    6021        !`      STR      r1,[r4,#0]
        0x00000406:    493c        <I      LDR      r1,[pc,#240] ; [0x4f8] = 0xe000e004
        0x00000408:    2002        .       MOVS     r0,#2
        0x0000040a:    f8c10100    ....    STR      r0,[r1,#0x100]
        0x0000040e:    e8bd4070    ..p@    POP      {r4-r6,lr}
        0x00000412:    f44f31e1    O..1    MOV      r1,#0x1c200
        0x00000416:    4839        9H      LDR      r0,[pc,#228] ; [0x4fc] = 0x40070000
        0x00000418:    f002b8b9    ....    B.W      UART_Open ; 0x258e
    main
        0x0000041c:    f7ffffa0    ....    BL       prvSetupHardware ; 0x360
        0x00000420:    a037        7.      ADR      r0,{pc}+0xe0 ; 0x500
        0x00000422:    f002fea1    ....    BL       __0printf$5 ; 0x3168
        0x00000426:    f000f82a    ..*.    BL       vStartTaskCreate ; 0x47e
        0x0000042a:    2002        .       MOVS     r0,#2
        0x0000042c:    f000fa8a    ....    BL       vStartPolledQueueTasks ; 0x944
        0x00000430:    a03c        <.      ADR      r0,{pc}+0xf4 ; 0x524
        0x00000432:    f002fe99    ....    BL       __0printf$5 ; 0x3168
        0x00000436:    f000ff3a    ..:.    BL       vTaskStartScheduler ; 0x12ae
        0x0000043a:    e7fe        ..      B        0x43a ; main + 30
    vApplicationMallocFailedHook
        0x0000043c:    f7fffed6    ....    BL       ulPortSetInterruptMask ; 0x1ec
        0x00000440:    e7fe        ..      B        0x440 ; vApplicationMallocFailedHook + 4
    vApplicationIdleHook
        0x00000442:    4770        pG      BX       lr
    vApplicationStackOverflowHook
        0x00000444:    f7fffed2    ....    BL       ulPortSetInterruptMask ; 0x1ec
        0x00000448:    e7fe        ..      B        0x448 ; vApplicationStackOverflowHook + 4
    vApplicationTickHook
        0x0000044a:    f000b9e0    ....    B.W      vQueueSetAccessQueueSetFromISR ; 0x80e
    vUserIFTask
        0x0000044e:    b508        ..      PUSH     {r3,lr}
        0x00000450:    f000ff59    ..Y.    BL       xTaskGetTickCount ; 0x1306
        0x00000454:    9000        ..      STR      r0,[sp,#0]
        0x00000456:    a03a        :.      ADR      r0,{pc}+0xea ; 0x540
        0x00000458:    f002fe86    ....    BL       __0printf$5 ; 0x3168
        0x0000045c:    a041        A.      ADR      r0,{pc}+0x108 ; 0x564
        0x0000045e:    f002fe83    ....    BL       __0printf$5 ; 0x3168
        0x00000462:    f2413488    A..4    MOV      r4,#0x1388
        0x00000466:    4621        !F      MOV      r1,r4
        0x00000468:    4668        hF      MOV      r0,sp
        0x0000046a:    f000fda0    ....    BL       vTaskDelayUntil ; 0xfae
        0x0000046e:    f000fa8d    ....    BL       xArePollingQueuesStillRunning ; 0x98c
        0x00000472:    2801        .(      CMP      r0,#1
        0x00000474:    d0f7        ..      BEQ      0x466 ; vUserIFTask + 24
        0x00000476:    a042        B.      ADR      r0,{pc}+0x10a ; 0x580
        0x00000478:    f002fe76    ..v.    BL       __0printf$5 ; 0x3168
        0x0000047c:    e7f3        ..      B        0x466 ; vUserIFTask + 24
    vStartTaskCreate
        0x0000047e:    e92d41ff    -..A    PUSH     {r0-r8,lr}
        0x00000482:    2400        .$      MOVS     r4,#0
        0x00000484:    4e43        CN      LDR      r6,[pc,#268] ; [0x594] = 0x349c
        0x00000486:    4625        %F      MOV      r5,r4
        0x00000488:    eb040744    ..D.    ADD      r7,r4,r4,LSL #1
        0x0000048c:    eb0600c7    ....    ADD      r0,r6,r7,LSL #3
        0x00000490:    e9d01204    ....    LDRD     r1,r2,[r0,#0x10]
        0x00000494:    e88d0026    ..&.    STM      sp,{r1,r2,r5}
        0x00000498:    9503        ..      STR      r5,[sp,#0xc]
        0x0000049a:    8901        ..      LDRH     r1,[r0,#8]
        0x0000049c:    68c3        .h      LDR      r3,[r0,#0xc]
        0x0000049e:    b28a        ..      UXTH     r2,r1
        0x000004a0:    6841        Ah      LDR      r1,[r0,#4]
        0x000004a2:    f8560037    V.7.    LDR      r0,[r6,r7,LSL #3]
        0x000004a6:    f000fbcb    ....    BL       xTaskGenericCreate ; 0xc40
        0x000004aa:    1c64        d.      ADDS     r4,r4,#1
        0x000004ac:    2c01        .,      CMP      r4,#1
        0x000004ae:    dbeb        ..      BLT      0x488 ; vStartTaskCreate + 10
        0x000004b0:    2100        .!      MOVS     r1,#0
        0x000004b2:    2001        .       MOVS     r0,#1
        0x000004b4:    f000fb28    ..(.    BL       vTaskGpioToggle ; 0xb08
        0x000004b8:    2100        .!      MOVS     r1,#0
        0x000004ba:    2001        .       MOVS     r0,#1
        0x000004bc:    f000fabb    ....    BL       vTaskGpioSegmLed ; 0xa36
        0x000004c0:    2100        .!      MOVS     r1,#0
        0x000004c2:    2001        .       MOVS     r0,#1
        0x000004c4:    f000fb7b    ..{.    BL       vTaskTimer1 ; 0xbbe
        0x000004c8:    2200        ."      MOVS     r2,#0
        0x000004ca:    2101        .!      MOVS     r1,#1
        0x000004cc:    200a        .       MOVS     r0,#0xa
        0x000004ce:    f001faf4    ....    BL       xQueueGenericCreate ; 0x1aba
        0x000004d2:    4c31        1L      LDR      r4,[pc,#196] ; [0x598] = 0x2000002c
        0x000004d4:    2100        .!      MOVS     r1,#0
        0x000004d6:    6020         `      STR      r0,[r4,#0]
        0x000004d8:    2001        .       MOVS     r0,#1
        0x000004da:    f001fd22    ..".    BL       xQueueCreateCountingSemaphore ; 0x1f22
        0x000004de:    6060        ``      STR      r0,[r4,#4]
        0x000004e0:    e8bd81ff    ....    POP      {r0-r8,pc}
    $d
        0x000004e4:    044aa200    ..J.    DCD    72000000
        0x000004e8:    57803d10    .=.W    DCD    1468022032
        0x000004ec:    5ec00003    ...^    DCD    1589641219
        0x000004f0:    5e800002    ...^    DCD    1585446914
        0x000004f4:    40050020     ..@    DCD    1074069536
        0x000004f8:    e000e004    ....    DCD    3758153732
        0x000004fc:    40070000    ...@    DCD    1074200576
        0x00000500:    64726148    Hard    DCD    1685217608
        0x00000504:    65726177    ware    DCD    1701994871
        0x00000508:    6e6f6320     con    DCD    1852793632
        0x0000050c:    75676966    figu    DCD    1969711462
        0x00000510:    69746172    rati    DCD    1769234802
        0x00000514:    64206e6f    on d    DCD    1679847023
        0x00000518:    20656e6f    one     DCD    543518319
        0x0000051c:    0a2e2e2e    ....    DCD    170798638
        0x00000520:    00000000    ....    DCD    0
        0x00000524:    65657246    Free    DCD    1701147206
        0x00000528:    534f5452    RTOS    DCD    1397707858
        0x0000052c:    20736920     is     DCD    544434464
        0x00000530:    72617473    star    DCD    1918989427
        0x00000534:    676e6974    ting    DCD    1735289204
        0x00000538:    2e2e2e20     ...    DCD    774778400
        0x0000053c:    0000000a    ....    DCD    10
        0x00000540:    3135344d    M451    DCD    825570381
        0x00000544:    72615520     Uar    DCD    1918981408
        0x00000548:    6f432074    t Co    DCD    1866670196
        0x0000054c:    6c6f736e    nsol    DCD    1819243374
        0x00000550:    73692065    e is    DCD    1936269413
        0x00000554:    6e757220     run    DCD    1853190688
        0x00000558:    676e696e    ning    DCD    1735289198
        0x0000055c:    2e2e2e20     ...    DCD    774778400
        0x00000560:    0000000a    ....    DCD    10
        0x00000564:    61656c50    Plea    DCD    1634036816
        0x00000568:    45206573    se E    DCD    1159751027
        0x0000056c:    7265746e    nter    DCD    1919251566
        0x00000570:    6d6f4320     Com    DCD    1836008224
        0x00000574:    646e616d    mand    DCD    1684955501
        0x00000578:    0a203a20     : .    DCD    169884192
        0x0000057c:    0000000a    ....    DCD    10
        0x00000580:    4f525245    ERRO    DCD    1330795077
        0x00000584:    4e492052    R IN    DCD    1313415250
        0x00000588:    4c4f5020     POL    DCD    1280266272
        0x0000058c:    0a51204c    L Q.    DCD    173088844
        0x00000590:    00000000    ....    DCD    0
        0x00000594:    0000349c    .4..    DCD    13468
        0x00000598:    2000002c    ,..     DCD    536870956
    $t
    .text
    prvCheckReceivedValueWithinExpectedRange
        0x0000059c:    b510        ..      PUSH     {r4,lr}
        0x0000059e:    2201        ."      MOVS     r2,#1
        0x000005a0:    4288        .B      CMP      r0,r1
        0x000005a2:    d905        ..      BLS      0x5b0 ; prvCheckReceivedValueWithinExpectedRange + 20
        0x000005a4:    1a40        @.      SUBS     r0,r0,r1
        0x000005a6:    2803        .(      CMP      r0,#3
        0x000005a8:    d908        ..      BLS      0x5bc ; prvCheckReceivedValueWithinExpectedRange + 32
        0x000005aa:    f7fffe1f    ....    BL       ulPortSetInterruptMask ; 0x1ec
        0x000005ae:    e7fe        ..      B        0x5ae ; prvCheckReceivedValueWithinExpectedRange + 18
        0x000005b0:    1a08        ..      SUBS     r0,r1,r0
        0x000005b2:    2803        .(      CMP      r0,#3
        0x000005b4:    d902        ..      BLS      0x5bc ; prvCheckReceivedValueWithinExpectedRange + 32
        0x000005b6:    f7fffe19    ....    BL       ulPortSetInterruptMask ; 0x1ec
        0x000005ba:    e7fe        ..      B        0x5ba ; prvCheckReceivedValueWithinExpectedRange + 30
        0x000005bc:    4610        .F      MOV      r0,r2
        0x000005be:    bd10        ..      POP      {r4,pc}
    prvCheckReceivedValue
        0x000005c0:    b570        p.      PUSH     {r4-r6,lr}
        0x000005c2:    f64f73ff    O..s    MOV      r3,#0xffff
        0x000005c6:    2500        .%      MOVS     r5,#0
        0x000005c8:    4caf        .L      LDR      r4,[pc,#700] ; [0x888] = 0x20000034
        0x000005ca:    4298        .B      CMP      r0,r3
        0x000005cc:    d319        ..      BCC      0x602 ; prvCheckReceivedValue + 66
        0x000005ce:    4621        !F      MOV      r1,r4
        0x000005d0:    1ac6        ..      SUBS     r6,r0,r3
        0x000005d2:    6a09        .j      LDR      r1,[r1,#0x20]
        0x000005d4:    1c4a        J.      ADDS     r2,r1,#1
        0x000005d6:    2e06        ..      CMP      r6,#6
        0x000005d8:    d201        ..      BCS      0x5de ; prvCheckReceivedValue + 30
        0x000005da:    6222        "b      STR      r2,[r4,#0x20]
        0x000005dc:    bd70        p.      POP      {r4-r6,pc}
        0x000005de:    43c6        .C      MVNS     r6,r0
        0x000005e0:    2e06        ..      CMP      r6,#6
        0x000005e2:    d804        ..      BHI      0x5ee ; prvCheckReceivedValue + 46
        0x000005e4:    6222        "b      STR      r2,[r4,#0x20]
        0x000005e6:    2a00        .*      CMP      r2,#0
        0x000005e8:    d1f8        ..      BNE      0x5dc ; prvCheckReceivedValue + 28
        0x000005ea:    6223        #b      STR      r3,[r4,#0x20]
        0x000005ec:    bd70        p.      POP      {r4-r6,pc}
        0x000005ee:    f7ffffd5    ....    BL       prvCheckReceivedValueWithinExpectedRange ; 0x59c
        0x000005f2:    2801        .(      CMP      r0,#1
        0x000005f4:    d001        ..      BEQ      0x5fa ; prvCheckReceivedValue + 58
        0x000005f6:    6065        e`      STR      r5,[r4,#4]
        0x000005f8:    bd70        p.      POP      {r4-r6,pc}
        0x000005fa:    6a20         j      LDR      r0,[r4,#0x20]
        0x000005fc:    1c40        @.      ADDS     r0,r0,#1
        0x000005fe:    6220         b      STR      r0,[r4,#0x20]
        0x00000600:    bd70        p.      POP      {r4-r6,pc}
        0x00000602:    49a1        .I      LDR      r1,[pc,#644] ; [0x888] = 0x20000034
        0x00000604:    69c9        .i      LDR      r1,[r1,#0x1c]
        0x00000606:    1c4a        J.      ADDS     r2,r1,#1
        0x00000608:    2806        .(      CMP      r0,#6
        0x0000060a:    d201        ..      BCS      0x610 ; prvCheckReceivedValue + 80
        0x0000060c:    61e2        .a      STR      r2,[r4,#0x1c]
        0x0000060e:    bd70        p.      POP      {r4-r6,pc}
        0x00000610:    f64f76fe    O..v    MOV      r6,#0xfffe
        0x00000614:    1a36        6.      SUBS     r6,r6,r0
        0x00000616:    2e06        ..      CMP      r6,#6
        0x00000618:    d804        ..      BHI      0x624 ; prvCheckReceivedValue + 100
        0x0000061a:    61e2        .a      STR      r2,[r4,#0x1c]
        0x0000061c:    429a        .B      CMP      r2,r3
        0x0000061e:    d3f6        ..      BCC      0x60e ; prvCheckReceivedValue + 78
        0x00000620:    61e5        .a      STR      r5,[r4,#0x1c]
        0x00000622:    bd70        p.      POP      {r4-r6,pc}
        0x00000624:    f7ffffba    ....    BL       prvCheckReceivedValueWithinExpectedRange ; 0x59c
        0x00000628:    2801        .(      CMP      r0,#1
        0x0000062a:    d1e4        ..      BNE      0x5f6 ; prvCheckReceivedValue + 54
        0x0000062c:    69e0        .i      LDR      r0,[r4,#0x1c]
        0x0000062e:    1c40        @.      ADDS     r0,r0,#1
        0x00000630:    61e0        .a      STR      r0,[r4,#0x1c]
        0x00000632:    bd70        p.      POP      {r4-r6,pc}
    prvSetupTest
        0x00000634:    e92d41f0    -..A    PUSH     {r4-r8,lr}
        0x00000638:    4680        .F      MOV      r8,r0
        0x0000063a:    2009        .       MOVS     r0,#9
        0x0000063c:    f001fd73    ..s.    BL       xQueueCreateSet ; 0x2126
        0x00000640:    4d91        .M      LDR      r5,[pc,#580] ; [0x888] = 0x20000034
        0x00000642:    2400        .$      MOVS     r4,#0
        0x00000644:    4f91        .O      LDR      r7,[pc,#580] ; [0x88c] = 0x200000f4
        0x00000646:    4626        &F      MOV      r6,r4
        0x00000648:    62a8        .b      STR      r0,[r5,#0x28]
        0x0000064a:    2200        ."      MOVS     r2,#0
        0x0000064c:    2104        .!      MOVS     r1,#4
        0x0000064e:    2003        .       MOVS     r0,#3
        0x00000650:    f001fa33    ..3.    BL       xQueueGenericCreate ; 0x1aba
        0x00000654:    f8470024    G.$.    STR      r0,[r7,r4,LSL #2]
        0x00000658:    b128        (.      CBZ      r0,0x666 ; prvSetupTest + 50
        0x0000065a:    6aa9        .j      LDR      r1,[r5,#0x28]
        0x0000065c:    f001fd66    ..f.    BL       xQueueAddToSet ; 0x212c
        0x00000660:    2801        .(      CMP      r0,#1
        0x00000662:    d109        ..      BNE      0x678 ; prvSetupTest + 68
        0x00000664:    e002        ..      B        0x66c ; prvSetupTest + 56
        0x00000666:    f7fffdc1    ....    BL       ulPortSetInterruptMask ; 0x1ec
        0x0000066a:    e7fe        ..      B        0x66a ; prvSetupTest + 54
        0x0000066c:    f8570024    W.$.    LDR      r0,[r7,r4,LSL #2]
        0x00000670:    6aa9        .j      LDR      r1,[r5,#0x28]
        0x00000672:    f001fd5b    ..[.    BL       xQueueAddToSet ; 0x212c
        0x00000676:    b100        ..      CBZ      r0,0x67a ; prvSetupTest + 70
        0x00000678:    606e        n`      STR      r6,[r5,#4]
        0x0000067a:    1c64        d.      ADDS     r4,r4,#1
        0x0000067c:    2c03        .,      CMP      r4,#3
        0x0000067e:    dbe4        ..      BLT      0x64a ; prvSetupTest + 22
        0x00000680:    2100        .!      MOVS     r1,#0
        0x00000682:    6838        8h      LDR      r0,[r7,#0]
        0x00000684:    f001fd60    ..`.    BL       xQueueRemoveFromSet ; 0x2148
        0x00000688:    b100        ..      CBZ      r0,0x68c ; prvSetupTest + 88
        0x0000068a:    606e        n`      STR      r6,[r5,#4]
        0x0000068c:    6838        8h      LDR      r0,[r7,#0]
        0x0000068e:    6aa9        .j      LDR      r1,[r5,#0x28]
        0x00000690:    f001fd5a    ..Z.    BL       xQueueRemoveFromSet ; 0x2148
        0x00000694:    2801        .(      CMP      r0,#1
        0x00000696:    d000        ..      BEQ      0x69a ; prvSetupTest + 102
        0x00000698:    606e        n`      STR      r6,[r5,#4]
        0x0000069a:    6838        8h      LDR      r0,[r7,#0]
        0x0000069c:    6aa9        .j      LDR      r1,[r5,#0x28]
        0x0000069e:    f001fd45    ..E.    BL       xQueueAddToSet ; 0x212c
        0x000006a2:    2801        .(      CMP      r0,#1
        0x000006a4:    d000        ..      BEQ      0x6a8 ; prvSetupTest + 116
        0x000006a6:    606e        n`      STR      r6,[r5,#4]
        0x000006a8:    21c8        .!      MOVS     r1,#0xc8
        0x000006aa:    6aa8        .j      LDR      r0,[r5,#0x28]
        0x000006ac:    f001fd5d    ..].    BL       xQueueSelectFromSet ; 0x216a
        0x000006b0:    b100        ..      CBZ      r0,0x6b4 ; prvSetupTest + 128
        0x000006b2:    606e        n`      STR      r6,[r5,#4]
        0x000006b4:    4640        @F      MOV      r0,r8
        0x000006b6:    f000fd8b    ....    BL       vTaskResume ; 0x11d0
        0x000006ba:    2001        .       MOVS     r0,#1
        0x000006bc:    60a8        .`      STR      r0,[r5,#8]
        0x000006be:    e8bd81f0    ....    POP      {r4-r8,pc}
    prvQueueSetReceivingTask
        0x000006c2:    b508        ..      PUSH     {r3,lr}
        0x000006c4:    f7ffffb6    ....    BL       prvSetupTest ; 0x634
        0x000006c8:    4c6f        oL      LDR      r4,[pc,#444] ; [0x888] = 0x20000034
        0x000006ca:    f04f36ff    O..6    MOV      r6,#0xffffffff
        0x000006ce:    2500        .%      MOVS     r5,#0
        0x000006d0:    4631        1F      MOV      r1,r6
        0x000006d2:    6aa0        .j      LDR      r0,[r4,#0x28]
        0x000006d4:    f001fd49    ..I.    BL       xQueueSelectFromSet ; 0x216a
        0x000006d8:    b1a8        ..      CBZ      r0,0x706 ; prvQueueSetReceivingTask + 68
        0x000006da:    2300        .#      MOVS     r3,#0
        0x000006dc:    461a        .F      MOV      r2,r3
        0x000006de:    4669        iF      MOV      r1,sp
        0x000006e0:    f001fb70    ..p.    BL       xQueueGenericReceive ; 0x1dc4
        0x000006e4:    2801        .(      CMP      r0,#1
        0x000006e6:    d000        ..      BEQ      0x6ea ; prvQueueSetReceivingTask + 40
        0x000006e8:    6065        e`      STR      r5,[r4,#4]
        0x000006ea:    f001fd92    ....    BL       vPortEnterCritical ; 0x2212
        0x000006ee:    9800        ..      LDR      r0,[sp,#0]
        0x000006f0:    f7ffff66    ..f.    BL       prvCheckReceivedValue ; 0x5c0
        0x000006f4:    f001fd93    ....    BL       vPortExitCritical ; 0x221e
        0x000006f8:    6860        `h      LDR      r0,[r4,#4]
        0x000006fa:    2801        .(      CMP      r0,#1
        0x000006fc:    d1e8        ..      BNE      0x6d0 ; prvQueueSetReceivingTask + 14
        0x000006fe:    6820         h      LDR      r0,[r4,#0]
        0x00000700:    1c40        @.      ADDS     r0,r0,#1
        0x00000702:    6020         `      STR      r0,[r4,#0]
        0x00000704:    e7e4        ..      B        0x6d0 ; prvQueueSetReceivingTask + 14
        0x00000706:    f7fffd71    ..q.    BL       ulPortSetInterruptMask ; 0x1ec
        0x0000070a:    e7fe        ..      B        0x70a ; prvQueueSetReceivingTask + 72
    prvQueueSetSendingTask
        0x0000070c:    b508        ..      PUSH     {r3,lr}
        0x0000070e:    2600        .&      MOVS     r6,#0
        0x00000710:    2401        .$      MOVS     r4,#1
        0x00000712:    4635        5F      MOV      r5,r6
        0x00000714:    4668        hF      MOV      r0,sp
        0x00000716:    9600        ..      STR      r6,[sp,#0]
        0x00000718:    f002fc7e    ..~.    BL       srand ; 0x3018
        0x0000071c:    f8df916c    ..l.    LDR      r9,[pc,#364] ; [0x88c] = 0x200000f4
        0x00000720:    f04f0803    O...    MOV      r8,#3
        0x00000724:    f109070c    ....    ADD      r7,r9,#0xc
        0x00000728:    f04f3bff    O..;    MOV      r11,#0xffffffff
        0x0000072c:    f64f7aff    O..z    MOV      r10,#0xffff
        0x00000730:    f002fc68    ..h.    BL       rand ; 0x3004
        0x00000734:    fb90f2f8    ....    SDIV     r2,r0,r8
        0x00000738:    fb080112    ....    MLS      r1,r8,r2,r0
        0x0000073c:    2300        .#      MOVS     r3,#0
        0x0000073e:    f8572021    W.!     LDR      r2,[r7,r1,LSL #2]
        0x00000742:    f8590021    Y.!.    LDR      r0,[r9,r1,LSL #2]
        0x00000746:    1c52        R.      ADDS     r2,r2,#1
        0x00000748:    f8472021    G.!     STR      r2,[r7,r1,LSL #2]
        0x0000074c:    465a        ZF      MOV      r2,r11
        0x0000074e:    4669        iF      MOV      r1,sp
        0x00000750:    f001fa61    ..a.    BL       xQueueGenericSend ; 0x1c16
        0x00000754:    2801        .(      CMP      r0,#1
        0x00000756:    d001        ..      BEQ      0x75c ; prvQueueSetSendingTask + 80
        0x00000758:    484b        KH      LDR      r0,[pc,#300] ; [0x888] = 0x20000034
        0x0000075a:    6046        F`      STR      r6,[r0,#4]
        0x0000075c:    9800        ..      LDR      r0,[sp,#0]
        0x0000075e:    1c40        @.      ADDS     r0,r0,#1
        0x00000760:    9000        ..      STR      r0,[sp,#0]
        0x00000762:    4550        PE      CMP      r0,r10
        0x00000764:    d100        ..      BNE      0x768 ; prvQueueSetSendingTask + 92
        0x00000766:    9600        ..      STR      r6,[sp,#0]
        0x00000768:    1c6d        m.      ADDS     r5,r5,#1
        0x0000076a:    2d64        d-      CMP      r5,#0x64
        0x0000076c:    d3e0        ..      BCC      0x730 ; prvQueueSetSendingTask + 36
        0x0000076e:    2500        .%      MOVS     r5,#0
        0x00000770:    1c64        d.      ADDS     r4,r4,#1
        0x00000772:    2c02        .,      CMP      r4,#2
        0x00000774:    d900        ..      BLS      0x778 ; prvQueueSetSendingTask + 108
        0x00000776:    2400        .$      MOVS     r4,#0
        0x00000778:    4621        !F      MOV      r1,r4
        0x0000077a:    2000        .       MOVS     r0,#0
        0x0000077c:    f000fc6b    ..k.    BL       vTaskPrioritySet ; 0x1056
        0x00000780:    e7d6        ..      B        0x730 ; prvQueueSetSendingTask + 36
    vStartQueueSetTasks
        0x00000782:    b530        0.      PUSH     {r4,r5,lr}
        0x00000784:    b085        ..      SUB      sp,sp,#0x14
        0x00000786:    2400        .$      MOVS     r4,#0
        0x00000788:    2501        .%      MOVS     r5,#1
        0x0000078a:    a804        ..      ADD      r0,sp,#0x10
        0x0000078c:    9500        ..      STR      r5,[sp,#0]
        0x0000078e:    e9cd0401    ....    STRD     r0,r4,[sp,#4]
        0x00000792:    4623        #F      MOV      r3,r4
        0x00000794:    2232        2"      MOVS     r2,#0x32
        0x00000796:    a13e        >.      ADR      r1,{pc}+0xfa ; 0x890
        0x00000798:    483f        ?H      LDR      r0,[pc,#252] ; [0x898] = 0x70d
        0x0000079a:    9403        ..      STR      r4,[sp,#0xc]
        0x0000079c:    f000fa50    ..P.    BL       xTaskGenericCreate ; 0xc40
        0x000007a0:    e9cd5400    ...T    STRD     r5,r4,[sp,#0]
        0x000007a4:    9402        ..      STR      r4,[sp,#8]
        0x000007a6:    9403        ..      STR      r4,[sp,#0xc]
        0x000007a8:    2232        2"      MOVS     r2,#0x32
        0x000007aa:    a13c        <.      ADR      r1,{pc}+0xf2 ; 0x89c
        0x000007ac:    483d        =H      LDR      r0,[pc,#244] ; [0x8a4] = 0x6c3
        0x000007ae:    9b04        ..      LDR      r3,[sp,#0x10]
        0x000007b0:    f000fa46    ..F.    BL       xTaskGenericCreate ; 0xc40
        0x000007b4:    9804        ..      LDR      r0,[sp,#0x10]
        0x000007b6:    f000fcc4    ....    BL       vTaskSuspend ; 0x1142
        0x000007ba:    b005        ..      ADD      sp,sp,#0x14
        0x000007bc:    bd30        0.      POP      {r4,r5,pc}
    xAreQueueSetTasksStillRunning
        0x000007be:    b570        p.      PUSH     {r4-r6,lr}
        0x000007c0:    4c31        1L      LDR      r4,[pc,#196] ; [0x888] = 0x20000034
        0x000007c2:    2001        .       MOVS     r0,#1
        0x000007c4:    6922        "i      LDR      r2,[r4,#0x10]
        0x000007c6:    6821        !h      LDR      r1,[r4,#0]
        0x000007c8:    428a        .B      CMP      r2,r1
        0x000007ca:    d100        ..      BNE      0x7ce ; xAreQueueSetTasksStillRunning + 16
        0x000007cc:    2000        .       MOVS     r0,#0
        0x000007ce:    6821        !h      LDR      r1,[r4,#0]
        0x000007d0:    6121        !a      STR      r1,[r4,#0x10]
        0x000007d2:    4d2e        .M      LDR      r5,[pc,#184] ; [0x88c] = 0x200000f4
        0x000007d4:    2100        .!      MOVS     r1,#0
        0x000007d6:    3518        .5      ADDS     r5,r5,#0x18
        0x000007d8:    f1a5030c    ....    SUB      r3,r5,#0xc
        0x000007dc:    f8556021    U.!`    LDR      r6,[r5,r1,LSL #2]
        0x000007e0:    f8532021    S.!     LDR      r2,[r3,r1,LSL #2]
        0x000007e4:    4296        .B      CMP      r6,r2
        0x000007e6:    d100        ..      BNE      0x7ea ; xAreQueueSetTasksStillRunning + 44
        0x000007e8:    2000        .       MOVS     r0,#0
        0x000007ea:    f8452021    E.!     STR      r2,[r5,r1,LSL #2]
        0x000007ee:    1c49        I.      ADDS     r1,r1,#1
        0x000007f0:    2903        .)      CMP      r1,#3
        0x000007f2:    dbf3        ..      BLT      0x7dc ; xAreQueueSetTasksStillRunning + 30
        0x000007f4:    6861        ah      LDR      r1,[r4,#4]
        0x000007f6:    2901        .)      CMP      r1,#1
        0x000007f8:    d000        ..      BEQ      0x7fc ; xAreQueueSetTasksStillRunning + 62
        0x000007fa:    2000        .       MOVS     r0,#0
        0x000007fc:    68e1        .h      LDR      r1,[r4,#0xc]
        0x000007fe:    6962        bi      LDR      r2,[r4,#0x14]
        0x00000800:    4291        .B      CMP      r1,r2
        0x00000802:    d101        ..      BNE      0x808 ; xAreQueueSetTasksStillRunning + 74
        0x00000804:    2000        .       MOVS     r0,#0
        0x00000806:    bd70        p.      POP      {r4-r6,pc}
        0x00000808:    68e1        .h      LDR      r1,[r4,#0xc]
        0x0000080a:    6161        aa      STR      r1,[r4,#0x14]
        0x0000080c:    bd70        p.      POP      {r4-r6,pc}
    vQueueSetAccessQueueSetFromISR
        0x0000080e:    b538        8.      PUSH     {r3-r5,lr}
        0x00000810:    4c1d        .L      LDR      r4,[pc,#116] ; [0x888] = 0x20000034
        0x00000812:    68a0        .h      LDR      r0,[r4,#8]
        0x00000814:    2801        .(      CMP      r0,#1
        0x00000816:    d118        ..      BNE      0x84a ; vQueueSetAccessQueueSetFromISR + 60
        0x00000818:    69a0        .i      LDR      r0,[r4,#0x18]
        0x0000081a:    1c40        @.      ADDS     r0,r0,#1
        0x0000081c:    61a0        .a      STR      r0,[r4,#0x18]
        0x0000081e:    2864        d(      CMP      r0,#0x64
        0x00000820:    d913        ..      BLS      0x84a ; vQueueSetAccessQueueSetFromISR + 60
        0x00000822:    2500        .%      MOVS     r5,#0
        0x00000824:    61a5        .a      STR      r5,[r4,#0x18]
        0x00000826:    6aa0        .j      LDR      r0,[r4,#0x28]
        0x00000828:    f001fca8    ....    BL       xQueueSelectFromSetFromISR ; 0x217c
        0x0000082c:    b148        H.      CBZ      r0,0x842 ; vQueueSetAccessQueueSetFromISR + 52
        0x0000082e:    2200        ."      MOVS     r2,#0
        0x00000830:    4669        iF      MOV      r1,sp
        0x00000832:    f001fbc4    ....    BL       xQueueReceiveFromISR ; 0x1fbe
        0x00000836:    2801        .(      CMP      r0,#1
        0x00000838:    d000        ..      BEQ      0x83c ; vQueueSetAccessQueueSetFromISR + 46
        0x0000083a:    6065        e`      STR      r5,[r4,#4]
        0x0000083c:    9800        ..      LDR      r0,[sp,#0]
        0x0000083e:    f7fffebf    ....    BL       prvCheckReceivedValue ; 0x5c0
        0x00000842:    e8bd4038    ..8@    POP      {r3-r5,lr}
        0x00000846:    f000b801    ....    B.W      prvSendToQueueInSetFromISR ; 0x84c
        0x0000084a:    bd38        8.      POP      {r3-r5,pc}
    prvSendToQueueInSetFromISR
        0x0000084c:    b510        ..      PUSH     {r4,lr}
        0x0000084e:    4c0e        .L      LDR      r4,[pc,#56] ; [0x888] = 0x20000034
        0x00000850:    490e        .I      LDR      r1,[pc,#56] ; [0x88c] = 0x200000f4
        0x00000852:    2300        .#      MOVS     r3,#0
        0x00000854:    6a60        `j      LDR      r0,[r4,#0x24]
        0x00000856:    461a        .F      MOV      r2,r3
        0x00000858:    f8510020    Q. .    LDR      r0,[r1,r0,LSL #2]
        0x0000085c:    f104010c    ....    ADD      r1,r4,#0xc
        0x00000860:    f001fb6b    ..k.    BL       xQueueGenericSendFromISR ; 0x1f3a
        0x00000864:    2801        .(      CMP      r0,#1
        0x00000866:    d10e        ..      BNE      0x886 ; prvSendToQueueInSetFromISR + 58
        0x00000868:    68e0        .h      LDR      r0,[r4,#0xc]
        0x0000086a:    1c40        @.      ADDS     r0,r0,#1
        0x0000086c:    60e0        .`      STR      r0,[r4,#0xc]
        0x0000086e:    68e0        .h      LDR      r0,[r4,#0xc]
        0x00000870:    b910        ..      CBNZ     r0,0x878 ; prvSendToQueueInSetFromISR + 44
        0x00000872:    f64f70ff    O..p    MOV      r0,#0xffff
        0x00000876:    60e0        .`      STR      r0,[r4,#0xc]
        0x00000878:    6a60        `j      LDR      r0,[r4,#0x24]
        0x0000087a:    1c40        @.      ADDS     r0,r0,#1
        0x0000087c:    6260        `b      STR      r0,[r4,#0x24]
        0x0000087e:    2803        .(      CMP      r0,#3
        0x00000880:    db01        ..      BLT      0x886 ; prvSendToQueueInSetFromISR + 58
        0x00000882:    2000        .       MOVS     r0,#0
        0x00000884:    6260        `b      STR      r0,[r4,#0x24]
        0x00000886:    bd10        ..      POP      {r4,pc}
    $d
        0x00000888:    20000034    4..     DCD    536870964
        0x0000088c:    200000f4    ...     DCD    536871156
        0x00000890:    54746553    SetT    DCD    1416914259
        0x00000894:    00000078    x...    DCD    120
        0x00000898:    0000070d    ....    DCD    1805
        0x0000089c:    52746553    SetR    DCD    1383359827
        0x000008a0:    00000078    x...    DCD    120
        0x000008a4:    000006c3    ....    DCD    1731
    $t
    .text
    vPolledQueueProducer
        0x000008a8:    b508        ..      PUSH     {r3,lr}
        0x000008aa:    4607        .F      MOV      r7,r0
        0x000008ac:    2000        .       MOVS     r0,#0
        0x000008ae:    4e3d        =N      LDR      r6,[pc,#244] ; [0x9a4] = 0x20000060
        0x000008b0:    f8ad0000    ....    STRH     r0,[sp,#0]
        0x000008b4:    4605        .F      MOV      r5,r0
        0x000008b6:    2400        .$      MOVS     r4,#0
        0x000008b8:    2300        .#      MOVS     r3,#0
        0x000008ba:    461a        .F      MOV      r2,r3
        0x000008bc:    4669        iF      MOV      r1,sp
        0x000008be:    6838        8h      LDR      r0,[r7,#0]
        0x000008c0:    f001f9a9    ....    BL       xQueueGenericSend ; 0x1c16
        0x000008c4:    2801        .(      CMP      r0,#1
        0x000008c6:    d001        ..      BEQ      0x8cc ; vPolledQueueProducer + 36
        0x000008c8:    2501        .%      MOVS     r5,#1
        0x000008ca:    e00c        ..      B        0x8e6 ; vPolledQueueProducer + 62
        0x000008cc:    b935        5.      CBNZ     r5,0x8dc ; vPolledQueueProducer + 52
        0x000008ce:    f001fca0    ....    BL       vPortEnterCritical ; 0x2212
        0x000008d2:    6870        ph      LDR      r0,[r6,#4]
        0x000008d4:    1c40        @.      ADDS     r0,r0,#1
        0x000008d6:    6070        p`      STR      r0,[r6,#4]
        0x000008d8:    f001fca1    ....    BL       vPortExitCritical ; 0x221e
        0x000008dc:    f8bd0000    ....    LDRH     r0,[sp,#0]
        0x000008e0:    1c40        @.      ADDS     r0,r0,#1
        0x000008e2:    f8ad0000    ....    STRH     r0,[sp,#0]
        0x000008e6:    1c64        d.      ADDS     r4,r4,#1
        0x000008e8:    2c03        .,      CMP      r4,#3
        0x000008ea:    dbe5        ..      BLT      0x8b8 ; vPolledQueueProducer + 16
        0x000008ec:    20c8        .       MOVS     r0,#0xc8
        0x000008ee:    f000fb8e    ....    BL       vTaskDelay ; 0x100e
        0x000008f2:    e7e0        ..      B        0x8b6 ; vPolledQueueProducer + 14
    vPolledQueueConsumer
        0x000008f4:    b508        ..      PUSH     {r3,lr}
        0x000008f6:    2400        .$      MOVS     r4,#0
        0x000008f8:    4606        .F      MOV      r6,r0
        0x000008fa:    4625        %F      MOV      r5,r4
        0x000008fc:    4f29        )O      LDR      r7,[pc,#164] ; [0x9a4] = 0x20000060
        0x000008fe:    e018        ..      B        0x932 ; vPolledQueueConsumer + 62
        0x00000900:    2300        .#      MOVS     r3,#0
        0x00000902:    461a        .F      MOV      r2,r3
        0x00000904:    4669        iF      MOV      r1,sp
        0x00000906:    6830        0h      LDR      r0,[r6,#0]
        0x00000908:    f001fa5c    ..\.    BL       xQueueGenericReceive ; 0x1dc4
        0x0000090c:    2801        .(      CMP      r0,#1
        0x0000090e:    d110        ..      BNE      0x932 ; vPolledQueueConsumer + 62
        0x00000910:    f8bd0000    ....    LDRH     r0,[sp,#0]
        0x00000914:    42a0        .B      CMP      r0,r4
        0x00000916:    d002        ..      BEQ      0x91e ; vPolledQueueConsumer + 42
        0x00000918:    2501        .%      MOVS     r5,#1
        0x0000091a:    4604        .F      MOV      r4,r0
        0x0000091c:    e007        ..      B        0x92e ; vPolledQueueConsumer + 58
        0x0000091e:    b935        5.      CBNZ     r5,0x92e ; vPolledQueueConsumer + 58
        0x00000920:    f001fc77    ..w.    BL       vPortEnterCritical ; 0x2212
        0x00000924:    6838        8h      LDR      r0,[r7,#0]
        0x00000926:    1c40        @.      ADDS     r0,r0,#1
        0x00000928:    6038        8`      STR      r0,[r7,#0]
        0x0000092a:    f001fc78    ..x.    BL       vPortExitCritical ; 0x221e
        0x0000092e:    1c64        d.      ADDS     r4,r4,#1
        0x00000930:    b2a4        ..      UXTH     r4,r4
        0x00000932:    6830        0h      LDR      r0,[r6,#0]
        0x00000934:    f001fb7b    ..{.    BL       uxQueueMessagesWaiting ; 0x202e
        0x00000938:    2800        .(      CMP      r0,#0
        0x0000093a:    d1e1        ..      BNE      0x900 ; vPolledQueueConsumer + 12
        0x0000093c:    20b4        .       MOVS     r0,#0xb4
        0x0000093e:    f000fb66    ..f.    BL       vTaskDelay ; 0x100e
        0x00000942:    e7f6        ..      B        0x932 ; vPolledQueueConsumer + 62
    vStartPolledQueueTasks
        0x00000944:    b57f        ..      PUSH     {r0-r6,lr}
        0x00000946:    4605        .F      MOV      r5,r0
        0x00000948:    2200        ."      MOVS     r2,#0
        0x0000094a:    2102        .!      MOVS     r1,#2
        0x0000094c:    200a        .       MOVS     r0,#0xa
        0x0000094e:    f001f8b4    ....    BL       xQueueGenericCreate ; 0x1aba
        0x00000952:    4914        .I      LDR      r1,[pc,#80] ; [0x9a4] = 0x20000060
        0x00000954:    6088        .`      STR      r0,[r1,#8]
        0x00000956:    a114        ..      ADR      r1,{pc}+0x52 ; 0x9a8
        0x00000958:    f001fbba    ....    BL       vQueueAddToRegistry ; 0x20d0
        0x0000095c:    2400        .$      MOVS     r4,#0
        0x0000095e:    e9cd5400    ...T    STRD     r5,r4,[sp,#0]
        0x00000962:    4b10        .K      LDR      r3,[pc,#64] ; [0x9a4] = 0x20000060
        0x00000964:    9402        ..      STR      r4,[sp,#8]
        0x00000966:    3308        .3      ADDS     r3,r3,#8
        0x00000968:    2232        2"      MOVS     r2,#0x32
        0x0000096a:    a113        ..      ADR      r1,{pc}+0x4e ; 0x9b8
        0x0000096c:    4814        .H      LDR      r0,[pc,#80] ; [0x9c0] = 0x8f5
        0x0000096e:    9403        ..      STR      r4,[sp,#0xc]
        0x00000970:    f000f966    ..f.    BL       xTaskGenericCreate ; 0xc40
        0x00000974:    e9cd5400    ...T    STRD     r5,r4,[sp,#0]
        0x00000978:    4b0a        .K      LDR      r3,[pc,#40] ; [0x9a4] = 0x20000060
        0x0000097a:    9402        ..      STR      r4,[sp,#8]
        0x0000097c:    3308        .3      ADDS     r3,r3,#8
        0x0000097e:    2232        2"      MOVS     r2,#0x32
        0x00000980:    a110        ..      ADR      r1,{pc}+0x44 ; 0x9c4
        0x00000982:    4812        .H      LDR      r0,[pc,#72] ; [0x9cc] = 0x8a9
        0x00000984:    9403        ..      STR      r4,[sp,#0xc]
        0x00000986:    f000f95b    ..[.    BL       xTaskGenericCreate ; 0xc40
        0x0000098a:    bd7f        ..      POP      {r0-r6,pc}
    xArePollingQueuesStillRunning
        0x0000098c:    4905        .I      LDR      r1,[pc,#20] ; [0x9a4] = 0x20000060
        0x0000098e:    6808        .h      LDR      r0,[r1,#0]
        0x00000990:    b130        0.      CBZ      r0,0x9a0 ; xArePollingQueuesStillRunning + 20
        0x00000992:    6848        Hh      LDR      r0,[r1,#4]
        0x00000994:    b120         .      CBZ      r0,0x9a0 ; xArePollingQueuesStillRunning + 20
        0x00000996:    2001        .       MOVS     r0,#1
        0x00000998:    2200        ."      MOVS     r2,#0
        0x0000099a:    600a        .`      STR      r2,[r1,#0]
        0x0000099c:    604a        J`      STR      r2,[r1,#4]
        0x0000099e:    4770        pG      BX       lr
        0x000009a0:    2000        .       MOVS     r0,#0
        0x000009a2:    e7f9        ..      B        0x998 ; xArePollingQueuesStillRunning + 12
    $d
        0x000009a4:    20000060    `..     DCD    536871008
        0x000009a8:    6c6c6f50    Poll    DCD    1819045712
        0x000009ac:    7365545f    _Tes    DCD    1936020575
        0x000009b0:    75515f74    t_Qu    DCD    1968267124
        0x000009b4:    00657565    eue.    DCD    6649189
        0x000009b8:    6e6f4351    QCon    DCD    1852785489
        0x000009bc:    00424e73    sNB.    DCD    4345459
        0x000009c0:    000008f5    ....    DCD    2293
        0x000009c4:    6f725051    QPro    DCD    1869762641
        0x000009c8:    00424e64    dNB.    DCD    4345444
        0x000009cc:    000008a9    ....    DCD    2217
    $t
    .text
    segmLedDisplay
        0x000009d0:    b570        p.      PUSH     {r4-r6,lr}
        0x000009d2:    460c        .F      MOV      r4,r1
        0x000009d4:    4605        .F      MOV      r5,r0
        0x000009d6:    f002fa45    ..E.    BL       Open_Seven_Segment ; 0x2e64
        0x000009da:    07e9        ..      LSLS     r1,r5,#31
        0x000009dc:    f04f000a    O...    MOV      r0,#0xa
        0x000009e0:    d004        ..      BEQ      0x9ec ; segmLedDisplay + 28
        0x000009e2:    fb94f0f0    ....    SDIV     r0,r4,r0
        0x000009e6:    b2c0        ..      UXTB     r0,r0
        0x000009e8:    2101        .!      MOVS     r1,#1
        0x000009ea:    e005        ..      B        0x9f8 ; segmLedDisplay + 40
        0x000009ec:    fb94f1f0    ....    SDIV     r1,r4,r0
        0x000009f0:    fb004011    ...@    MLS      r0,r0,r1,r4
        0x000009f4:    b2c0        ..      UXTB     r0,r0
        0x000009f6:    2102        .!      MOVS     r1,#2
        0x000009f8:    e8bd4070    ..p@    POP      {r4-r6,lr}
        0x000009fc:    f002ba80    ....    B.W      Show_Seven_Segment ; 0x2f00
    vSegLedTask
        0x00000a00:    4d13        .M      LDR      r5,[pc,#76] ; [0xa50] = 0x2000002c
        0x00000a02:    4c14        .L      LDR      r4,[pc,#80] ; [0xa54] = 0x2000006c
        0x00000a04:    f44f767a    O.zv    MOV      r6,#0x3e8
        0x00000a08:    2300        .#      MOVS     r3,#0
        0x00000a0a:    2214        ."      MOVS     r2,#0x14
        0x00000a0c:    4911        .I      LDR      r1,[pc,#68] ; [0xa54] = 0x2000006c
        0x00000a0e:    6828        (h      LDR      r0,[r5,#0]
        0x00000a10:    f001f9d8    ....    BL       xQueueGenericReceive ; 0x1dc4
        0x00000a14:    2801        .(      CMP      r0,#1
        0x00000a16:    d103        ..      BNE      0xa20 ; vSegLedTask + 32
        0x00000a18:    7821        !x      LDRB     r1,[r4,#0]
        0x00000a1a:    a00f        ..      ADR      r0,{pc}+0x3e ; 0xa58
        0x00000a1c:    f002fba4    ....    BL       __0printf$5 ; 0x3168
        0x00000a20:    6860        `h      LDR      r0,[r4,#4]
        0x00000a22:    1c40        @.      ADDS     r0,r0,#1
        0x00000a24:    fb90f1f6    ....    SDIV     r1,r0,r6
        0x00000a28:    fb060011    ....    MLS      r0,r6,r1,r0
        0x00000a2c:    6060        ``      STR      r0,[r4,#4]
        0x00000a2e:    7821        !x      LDRB     r1,[r4,#0]
        0x00000a30:    f7ffffce    ....    BL       segmLedDisplay ; 0x9d0
        0x00000a34:    e7e8        ..      B        0xa08 ; vSegLedTask + 8
    vTaskGpioSegmLed
        0x00000a36:    b51f        ..      PUSH     {r0-r4,lr}
        0x00000a38:    2200        ."      MOVS     r2,#0
        0x00000a3a:    e9cd0200    ....    STRD     r0,r2,[sp,#0]
        0x00000a3e:    9202        ..      STR      r2,[sp,#8]
        0x00000a40:    460b        .F      MOV      r3,r1
        0x00000a42:    9203        ..      STR      r2,[sp,#0xc]
        0x00000a44:    2232        2"      MOVS     r2,#0x32
        0x00000a46:    a10b        ..      ADR      r1,{pc}+0x2e ; 0xa74
        0x00000a48:    480c        .H      LDR      r0,[pc,#48] ; [0xa7c] = 0xa01
        0x00000a4a:    f000f8f9    ....    BL       xTaskGenericCreate ; 0xc40
        0x00000a4e:    bd1f        ..      POP      {r0-r4,pc}
    $d
        0x00000a50:    2000002c    ,..     DCD    536870956
        0x00000a54:    2000006c    l..     DCD    536871020
        0x00000a58:    4d49545b    [TIM    DCD    1296651355
        0x00000a5c:    52203a5d    ]: R    DCD    1377843805
        0x00000a60:    69656365    ecei    DCD    1768252261
        0x00000a64:    51206576    ve Q    DCD    1361077622
        0x00000a68:    65756575    ueue    DCD    1702192501
        0x00000a6c:    20642520     %d     DCD    543434016
        0x00000a70:    0000000a    ....    DCD    10
        0x00000a74:    5f44454c    LED_    DCD    1598309708
        0x00000a78:    00474553    SEG.    DCD    4670803
        0x00000a7c:    00000a01    ....    DCD    2561
    $t
    .text
    toggleLED
        0x00000a80:    b510        ..      PUSH     {r4,lr}
        0x00000a82:    2800        .(      CMP      r0,#0
        0x00000a84:    d115        ..      BNE      0xab2 ; toggleLED + 50
        0x00000a86:    f001fbc4    ....    BL       vPortEnterCritical ; 0x2212
        0x00000a8a:    4926        &I      LDR      r1,[pc,#152] ; [0xb24] = 0x20000074
        0x00000a8c:    4a26        &J      LDR      r2,[pc,#152] ; [0xb28] = 0x40004848
        0x00000a8e:    8808        ..      LDRH     r0,[r1,#0]
        0x00000a90:    f0100f04    ....    TST      r0,#4
        0x00000a94:    d004        ..      BEQ      0xaa0 ; toggleLED + 32
        0x00000a96:    f0200004     ...    BIC      r0,r0,#4
        0x00000a9a:    8008        ..      STRH     r0,[r1,#0]
        0x00000a9c:    2000        .       MOVS     r0,#0
        0x00000a9e:    e003        ..      B        0xaa8 ; toggleLED + 40
        0x00000aa0:    f0400004    @...    ORR      r0,r0,#4
        0x00000aa4:    8008        ..      STRH     r0,[r1,#0]
        0x00000aa6:    2001        .       MOVS     r0,#1
        0x00000aa8:    6010        .`      STR      r0,[r2,#0]
        0x00000aaa:    e8bd4010    ...@    POP      {r4,lr}
        0x00000aae:    f001bbb6    ....    B.W      vPortExitCritical ; 0x221e
        0x00000ab2:    bd10        ..      POP      {r4,pc}
    vLedToggleTask
        0x00000ab4:    b508        ..      PUSH     {r3,lr}
        0x00000ab6:    2201        ."      MOVS     r2,#1
        0x00000ab8:    2104        .!      MOVS     r1,#4
        0x00000aba:    481c        .H      LDR      r0,[pc,#112] ; [0xb2c] = 0x40004040
        0x00000abc:    f002f8f1    ....    BL       GPIO_SetMode ; 0x2ca2
        0x00000ac0:    f001fba7    ....    BL       vPortEnterCritical ; 0x2212
        0x00000ac4:    4917        .I      LDR      r1,[pc,#92] ; [0xb24] = 0x20000074
        0x00000ac6:    684c        Lh      LDR      r4,[r1,#4]
        0x00000ac8:    6848        Hh      LDR      r0,[r1,#4]
        0x00000aca:    1c40        @.      ADDS     r0,r0,#1
        0x00000acc:    6048        H`      STR      r0,[r1,#4]
        0x00000ace:    f001fba6    ....    BL       vPortExitCritical ; 0x221e
        0x00000ad2:    eb040044    ..D.    ADD      r0,r4,r4,LSL #1
        0x00000ad6:    ebc010c4    ....    RSB      r0,r0,r4,LSL #7
        0x00000ada:    f44f71fa    O..q    MOV      r1,#0x1f4
        0x00000ade:    eb010080    ....    ADD      r0,r1,r0,LSL #2
        0x00000ae2:    0845        E.      LSRS     r5,r0,#1
        0x00000ae4:    f000fc0f    ....    BL       xTaskGetTickCount ; 0x1306
        0x00000ae8:    9000        ..      STR      r0,[sp,#0]
        0x00000aea:    4629        )F      MOV      r1,r5
        0x00000aec:    4668        hF      MOV      r0,sp
        0x00000aee:    f000fa5e    ..^.    BL       vTaskDelayUntil ; 0xfae
        0x00000af2:    4620         F      MOV      r0,r4
        0x00000af4:    f7ffffc4    ....    BL       toggleLED ; 0xa80
        0x00000af8:    4629        )F      MOV      r1,r5
        0x00000afa:    4668        hF      MOV      r0,sp
        0x00000afc:    f000fa57    ..W.    BL       vTaskDelayUntil ; 0xfae
        0x00000b00:    4620         F      MOV      r0,r4
        0x00000b02:    f7ffffbd    ....    BL       toggleLED ; 0xa80
        0x00000b06:    e7f0        ..      B        0xaea ; vLedToggleTask + 54
    vTaskGpioToggle
        0x00000b08:    b51f        ..      PUSH     {r0-r4,lr}
        0x00000b0a:    2200        ."      MOVS     r2,#0
        0x00000b0c:    e9cd0200    ....    STRD     r0,r2,[sp,#0]
        0x00000b10:    9202        ..      STR      r2,[sp,#8]
        0x00000b12:    460b        .F      MOV      r3,r1
        0x00000b14:    9203        ..      STR      r2,[sp,#0xc]
        0x00000b16:    2232        2"      MOVS     r2,#0x32
        0x00000b18:    a105        ..      ADR      r1,{pc}+0x18 ; 0xb30
        0x00000b1a:    4808        .H      LDR      r0,[pc,#32] ; [0xb3c] = 0xab5
        0x00000b1c:    f000f890    ....    BL       xTaskGenericCreate ; 0xc40
        0x00000b20:    bd1f        ..      POP      {r0-r4,pc}
    $d
        0x00000b22:    0000        ..      DCW    0
        0x00000b24:    20000074    t..     DCD    536871028
        0x00000b28:    40004848    HH.@    DCD    1073760328
        0x00000b2c:    40004040    @@.@    DCD    1073758272
        0x00000b30:    5f44454c    LED_    DCD    1598309708
        0x00000b34:    47474f54    TOGG    DCD    1195855700
        0x00000b38:    0000454c    LE..    DCD    17740
        0x00000b3c:    00000ab5    ....    DCD    2741
    $t
    .text
    TMR1_IRQHandler
        0x00000b40:    b508        ..      PUSH     {r3,lr}
        0x00000b42:    2000        .       MOVS     r0,#0
        0x00000b44:    9000        ..      STR      r0,[sp,#0]
        0x00000b46:    4825        %H      LDR      r0,[pc,#148] ; [0xbdc] = 0x40050020
        0x00000b48:    6881        .h      LDR      r1,[r0,#8]
        0x00000b4a:    f0210102    !...    BIC      r1,r1,#2
        0x00000b4e:    f0410101    A...    ORR      r1,r1,#1
        0x00000b52:    6081        .`      STR      r1,[r0,#8]
        0x00000b54:    4822        "H      LDR      r0,[pc,#136] ; [0xbe0] = 0x20000030
        0x00000b56:    2300        .#      MOVS     r3,#0
        0x00000b58:    466a        jF      MOV      r2,sp
        0x00000b5a:    4619        .F      MOV      r1,r3
        0x00000b5c:    6800        .h      LDR      r0,[r0,#0]
        0x00000b5e:    f001f9ec    ....    BL       xQueueGenericSendFromISR ; 0x1f3a
        0x00000b62:    bd08        ..      POP      {r3,pc}
    vTimer1Task
        0x00000b64:    b508        ..      PUSH     {r3,lr}
        0x00000b66:    481d        .H      LDR      r0,[pc,#116] ; [0xbdc] = 0x40050020
        0x00000b68:    2500        .%      MOVS     r5,#0
        0x00000b6a:    9500        ..      STR      r5,[sp,#0]
        0x00000b6c:    6801        .h      LDR      r1,[r0,#0]
        0x00000b6e:    f0414180    A..A    ORR      r1,r1,#0x40000000
        0x00000b72:    6001        .`      STR      r1,[r0,#0]
        0x00000b74:    4e1a        .N      LDR      r6,[pc,#104] ; [0xbe0] = 0x20000030
        0x00000b76:    4f1b        .O      LDR      r7,[pc,#108] ; [0xbe4] = 0x2000002c
        0x00000b78:    4c1b        .L      LDR      r4,[pc,#108] ; [0xbe8] = 0x2000007c
        0x00000b7a:    f04f38ff    O..8    MOV      r8,#0xffffffff
        0x00000b7e:    2300        .#      MOVS     r3,#0
        0x00000b80:    4642        BF      MOV      r2,r8
        0x00000b82:    4619        .F      MOV      r1,r3
        0x00000b84:    6830        0h      LDR      r0,[r6,#0]
        0x00000b86:    f001f91d    ....    BL       xQueueGenericReceive ; 0x1dc4
        0x00000b8a:    2801        .(      CMP      r0,#1
        0x00000b8c:    d1f7        ..      BNE      0xb7e ; vTimer1Task + 26
        0x00000b8e:    7820         x      LDRB     r0,[r4,#0]
        0x00000b90:    2863        c(      CMP      r0,#0x63
        0x00000b92:    d00d        ..      BEQ      0xbb0 ; vTimer1Task + 76
        0x00000b94:    1c40        @.      ADDS     r0,r0,#1
        0x00000b96:    7020         p      STRB     r0,[r4,#0]
        0x00000b98:    2300        .#      MOVS     r3,#0
        0x00000b9a:    466a        jF      MOV      r2,sp
        0x00000b9c:    4912        .I      LDR      r1,[pc,#72] ; [0xbe8] = 0x2000007c
        0x00000b9e:    6838        8h      LDR      r0,[r7,#0]
        0x00000ba0:    f001f9cb    ....    BL       xQueueGenericSendFromISR ; 0x1f3a
        0x00000ba4:    2801        .(      CMP      r0,#1
        0x00000ba6:    d005        ..      BEQ      0xbb4 ; vTimer1Task + 80
        0x00000ba8:    a010        ..      ADR      r0,{pc}+0x44 ; 0xbec
        0x00000baa:    f002fadd    ....    BL       __0printf$5 ; 0x3168
        0x00000bae:    e7e6        ..      B        0xb7e ; vTimer1Task + 26
        0x00000bb0:    7025        %p      STRB     r5,[r4,#0]
        0x00000bb2:    e7f1        ..      B        0xb98 ; vTimer1Task + 52
        0x00000bb4:    7821        !x      LDRB     r1,[r4,#0]
        0x00000bb6:    a016        ..      ADR      r0,{pc}+0x5a ; 0xc10
        0x00000bb8:    f002fad6    ....    BL       __0printf$5 ; 0x3168
        0x00000bbc:    e7df        ..      B        0xb7e ; vTimer1Task + 26
    vTaskTimer1
        0x00000bbe:    b51f        ..      PUSH     {r0-r4,lr}
        0x00000bc0:    4c09        .L      LDR      r4,[pc,#36] ; [0xbe8] = 0x2000007c
        0x00000bc2:    9000        ..      STR      r0,[sp,#0]
        0x00000bc4:    2200        ."      MOVS     r2,#0
        0x00000bc6:    1d24        $.      ADDS     r4,r4,#4
        0x00000bc8:    e9cd4201    ...B    STRD     r4,r2,[sp,#4]
        0x00000bcc:    460b        .F      MOV      r3,r1
        0x00000bce:    9203        ..      STR      r2,[sp,#0xc]
        0x00000bd0:    22c8        ."      MOVS     r2,#0xc8
        0x00000bd2:    a117        ..      ADR      r1,{pc}+0x5e ; 0xc30
        0x00000bd4:    4819        .H      LDR      r0,[pc,#100] ; [0xc3c] = 0xb65
        0x00000bd6:    f000f833    ..3.    BL       xTaskGenericCreate ; 0xc40
        0x00000bda:    bd1f        ..      POP      {r0-r4,pc}
    $d
        0x00000bdc:    40050020     ..@    DCD    1074069536
        0x00000be0:    20000030    0..     DCD    536870960
        0x00000be4:    2000002c    ,..     DCD    536870956
        0x00000be8:    2000007c    |..     DCD    536871036
        0x00000bec:    4d49545b    [TIM    DCD    1296651355
        0x00000bf0:    41203a5d    ]: A    DCD    1092631133
        0x00000bf4:    54206464    dd T    DCD    1411408996
        0x00000bf8:    72656d69    imer    DCD    1919249769
        0x00000bfc:    6575512d    -Que    DCD    1702187309
        0x00000c00:    66206575    ue f    DCD    1713399157
        0x00000c04:    756c6961    ailu    DCD    1970039137
        0x00000c08:    2e2e6572    re..    DCD    774792562
        0x00000c0c:    00000a2e    ....    DCD    2606
        0x00000c10:    4d49545b    [TIM    DCD    1296651355
        0x00000c14:    41203a5d    ]: A    DCD    1092631133
        0x00000c18:    54206464    dd T    DCD    1411408996
        0x00000c1c:    72656d69    imer    DCD    1919249769
        0x00000c20:    6575512d    -Que    DCD    1702187309
        0x00000c24:    69206575    ue i    DCD    1763730805
        0x00000c28:    64252073    s %d    DCD    1680154739
        0x00000c2c:    0000000a    ....    DCD    10
        0x00000c30:    314d4954    TIM1    DCD    827148628
        0x00000c34:    5253495f    _ISR    DCD    1381189983
        0x00000c38:    00000000    ....    DCD    0
        0x00000c3c:    00000b65    e...    DCD    2917
    $t
    .text
    xTaskGenericCreate
        0x00000c40:    e92d5fff    -.._    PUSH     {r0-r12,lr}
        0x00000c44:    e9dd680e    ...h    LDRD     r6,r8,[sp,#0x38]
        0x00000c48:    9f10        ..      LDR      r7,[sp,#0x40]
        0x00000c4a:    4615        .F      MOV      r5,r2
        0x00000c4c:    468a        .F      MOV      r10,r1
        0x00000c4e:    ea5f0b00    _...    MOVS     r11,r0
        0x00000c52:    d004        ..      BEQ      0xc5e ; xTaskGenericCreate + 30
        0x00000c54:    2e05        ..      CMP      r6,#5
        0x00000c56:    d305        ..      BCC      0xc64 ; xTaskGenericCreate + 36
        0x00000c58:    f7fffac8    ....    BL       ulPortSetInterruptMask ; 0x1ec
        0x00000c5c:    e7fe        ..      B        0xc5c ; xTaskGenericCreate + 28
        0x00000c5e:    f7fffac5    ....    BL       ulPortSetInterruptMask ; 0x1ec
        0x00000c62:    e7fe        ..      B        0xc62 ; xTaskGenericCreate + 34
        0x00000c64:    204c        L       MOVS     r0,#0x4c
        0x00000c66:    f001faf9    ....    BL       pvPortMalloc ; 0x225c
        0x00000c6a:    0004        ..      MOVS     r4,r0
        0x00000c6c:    d009        ..      BEQ      0xc82 ; xTaskGenericCreate + 66
        0x00000c6e:    00a8        ..      LSLS     r0,r5,#2
        0x00000c70:    4681        .F      MOV      r9,r0
        0x00000c72:    b1af        ..      CBZ      r7,0xca0 ; xTaskGenericCreate + 96
        0x00000c74:    4638        8F      MOV      r0,r7
        0x00000c76:    6320         c      STR      r0,[r4,#0x30]
        0x00000c78:    b1a8        ..      CBZ      r0,0xca6 ; xTaskGenericCreate + 102
        0x00000c7a:    22a5        ."      MOVS     r2,#0xa5
        0x00000c7c:    4649        IF      MOV      r1,r9
        0x00000c7e:    f002f9e5    ....    BL       __aeabi_memset ; 0x304c
        0x00000c82:    2c00        .,      CMP      r4,#0
        0x00000c84:    d07e        ~.      BEQ      0xd84 ; xTaskGenericCreate + 324
        0x00000c86:    f06f0003    o...    MVN      r0,#3
        0x00000c8a:    6b21        !k      LDR      r1,[r4,#0x30]
        0x00000c8c:    eb000085    ....    ADD      r0,r0,r5,LSL #2
        0x00000c90:    4408        .D      ADD      r0,r0,r1
        0x00000c92:    f0200507     ...    BIC      r5,r0,#7
        0x00000c96:    0768        h.      LSLS     r0,r5,#29
        0x00000c98:    d00a        ..      BEQ      0xcb0 ; xTaskGenericCreate + 112
        0x00000c9a:    f7fffaa7    ....    BL       ulPortSetInterruptMask ; 0x1ec
        0x00000c9e:    e7fe        ..      B        0xc9e ; xTaskGenericCreate + 94
        0x00000ca0:    f001fadc    ....    BL       pvPortMalloc ; 0x225c
        0x00000ca4:    e7e7        ..      B        0xc76 ; xTaskGenericCreate + 54
        0x00000ca6:    4620         F      MOV      r0,r4
        0x00000ca8:    f001fb31    ..1.    BL       vPortFree ; 0x230e
        0x00000cac:    2400        .$      MOVS     r4,#0
        0x00000cae:    e7e8        ..      B        0xc82 ; xTaskGenericCreate + 66
        0x00000cb0:    4651        QF      MOV      r1,r10
        0x00000cb2:    220a        ."      MOVS     r2,#0xa
        0x00000cb4:    f1040034    ..4.    ADD      r0,r4,#0x34
        0x00000cb8:    f002f9e6    ....    BL       strncpy ; 0x3088
        0x00000cbc:    2000        .       MOVS     r0,#0
        0x00000cbe:    f884003d    ..=.    STRB     r0,[r4,#0x3d]
        0x00000cc2:    62e6        .b      STR      r6,[r4,#0x2c]
        0x00000cc4:    1d20         .      ADDS     r0,r4,#4
        0x00000cc6:    64a6        .d      STR      r6,[r4,#0x48]
        0x00000cc8:    f000fe85    ....    BL       vListInitialiseItem ; 0x19d6
        0x00000ccc:    f1040018    ....    ADD      r0,r4,#0x18
        0x00000cd0:    f000fe81    ....    BL       vListInitialiseItem ; 0x19d6
        0x00000cd4:    6124        $a      STR      r4,[r4,#0x10]
        0x00000cd6:    f1c60005    ....    RSB      r0,r6,#5
        0x00000cda:    6264        db      STR      r4,[r4,#0x24]
        0x00000cdc:    61a0        .a      STR      r0,[r4,#0x18]
        0x00000cde:    4659        YF      MOV      r1,r11
        0x00000ce0:    4628        (F      MOV      r0,r5
        0x00000ce2:    9a03        ..      LDR      r2,[sp,#0xc]
        0x00000ce4:    f001fa56    ..V.    BL       pxPortInitialiseStack ; 0x2194
        0x00000ce8:    6020         `      STR      r0,[r4,#0]
        0x00000cea:    f1b80f00    ....    CMP      r8,#0
        0x00000cee:    d001        ..      BEQ      0xcf4 ; xTaskGenericCreate + 180
        0x00000cf0:    f8c84000    ...@    STR      r4,[r8,#0]
        0x00000cf4:    f001fa8d    ....    BL       vPortEnterCritical ; 0x2212
        0x00000cf8:    4ffc        .O      LDR      r7,[pc,#1008] ; [0x10ec] = 0x20000084
        0x00000cfa:    68b8        .h      LDR      r0,[r7,#8]
        0x00000cfc:    1c40        @.      ADDS     r0,r0,#1
        0x00000cfe:    60b8        .`      STR      r0,[r7,#8]
        0x00000d00:    6838        8h      LDR      r0,[r7,#0]
        0x00000d02:    f8df83ec    ....    LDR      r8,[pc,#1004] ; [0x10f0] = 0x20000140
        0x00000d06:    b110        ..      CBZ      r0,0xd0e ; xTaskGenericCreate + 206
        0x00000d08:    69b8        .i      LDR      r0,[r7,#0x18]
        0x00000d0a:    b340        @.      CBZ      r0,0xd5e ; xTaskGenericCreate + 286
        0x00000d0c:    e02c        ,.      B        0xd68 ; xTaskGenericCreate + 296
        0x00000d0e:    603c        <`      STR      r4,[r7,#0]
        0x00000d10:    68b8        .h      LDR      r0,[r7,#8]
        0x00000d12:    2801        .(      CMP      r0,#1
        0x00000d14:    d128        (.      BNE      0xd68 ; xTaskGenericCreate + 296
        0x00000d16:    2500        .%      MOVS     r5,#0
        0x00000d18:    eb050185    ....    ADD      r1,r5,r5,LSL #2
        0x00000d1c:    eb080081    ....    ADD      r0,r8,r1,LSL #2
        0x00000d20:    f000fe4e    ..N.    BL       vListInitialise ; 0x19c0
        0x00000d24:    1c6d        m.      ADDS     r5,r5,#1
        0x00000d26:    2d05        .-      CMP      r5,#5
        0x00000d28:    d3f6        ..      BCC      0xd18 ; xTaskGenericCreate + 216
        0x00000d2a:    48f1        .H      LDR      r0,[pc,#964] ; [0x10f0] = 0x20000140
        0x00000d2c:    3064        d0      ADDS     r0,r0,#0x64
        0x00000d2e:    f000fe47    ..G.    BL       vListInitialise ; 0x19c0
        0x00000d32:    48ef        .H      LDR      r0,[pc,#956] ; [0x10f0] = 0x20000140
        0x00000d34:    3078        x0      ADDS     r0,r0,#0x78
        0x00000d36:    f000fe43    ..C.    BL       vListInitialise ; 0x19c0
        0x00000d3a:    48ed        .H      LDR      r0,[pc,#948] ; [0x10f0] = 0x20000140
        0x00000d3c:    308c        .0      ADDS     r0,r0,#0x8c
        0x00000d3e:    f000fe3f    ..?.    BL       vListInitialise ; 0x19c0
        0x00000d42:    48eb        .H      LDR      r0,[pc,#940] ; [0x10f0] = 0x20000140
        0x00000d44:    30a0        .0      ADDS     r0,r0,#0xa0
        0x00000d46:    f000fe3b    ..;.    BL       vListInitialise ; 0x19c0
        0x00000d4a:    48e9        .H      LDR      r0,[pc,#932] ; [0x10f0] = 0x20000140
        0x00000d4c:    30b4        .0      ADDS     r0,r0,#0xb4
        0x00000d4e:    f000fe37    ..7.    BL       vListInitialise ; 0x19c0
        0x00000d52:    48e7        .H      LDR      r0,[pc,#924] ; [0x10f0] = 0x20000140
        0x00000d54:    3064        d0      ADDS     r0,r0,#0x64
        0x00000d56:    6378        xc      STR      r0,[r7,#0x34]
        0x00000d58:    3014        .0      ADDS     r0,r0,#0x14
        0x00000d5a:    63b8        .c      STR      r0,[r7,#0x38]
        0x00000d5c:    e004        ..      B        0xd68 ; xTaskGenericCreate + 296
        0x00000d5e:    6838        8h      LDR      r0,[r7,#0]
        0x00000d60:    6ac0        .j      LDR      r0,[r0,#0x2c]
        0x00000d62:    42b0        .B      CMP      r0,r6
        0x00000d64:    d800        ..      BHI      0xd68 ; xTaskGenericCreate + 296
        0x00000d66:    603c        <`      STR      r4,[r7,#0]
        0x00000d68:    6ae0        .j      LDR      r0,[r4,#0x2c]
        0x00000d6a:    6939        9i      LDR      r1,[r7,#0x10]
        0x00000d6c:    4288        .B      CMP      r0,r1
        0x00000d6e:    d900        ..      BLS      0xd72 ; xTaskGenericCreate + 306
        0x00000d70:    6138        8a      STR      r0,[r7,#0x10]
        0x00000d72:    6af9        .j      LDR      r1,[r7,#0x2c]
        0x00000d74:    1c49        I.      ADDS     r1,r1,#1
        0x00000d76:    62f9        .b      STR      r1,[r7,#0x2c]
        0x00000d78:    6421        !d      STR      r1,[r4,#0x40]
        0x00000d7a:    6979        yi      LDR      r1,[r7,#0x14]
        0x00000d7c:    4288        .B      CMP      r0,r1
        0x00000d7e:    d900        ..      BLS      0xd82 ; xTaskGenericCreate + 322
        0x00000d80:    6178        xa      STR      r0,[r7,#0x14]
        0x00000d82:    e000        ..      B        0xd86 ; xTaskGenericCreate + 326
        0x00000d84:    e015        ..      B        0xdb2 ; xTaskGenericCreate + 370
        0x00000d86:    eb000180    ....    ADD      r1,r0,r0,LSL #2
        0x00000d8a:    eb080081    ....    ADD      r0,r8,r1,LSL #2
        0x00000d8e:    1d21        !.      ADDS     r1,r4,#4
        0x00000d90:    f000fe24    ..$.    BL       vListInsertEnd ; 0x19dc
        0x00000d94:    2401        .$      MOVS     r4,#1
        0x00000d96:    f001fa42    ..B.    BL       vPortExitCritical ; 0x221e
        0x00000d9a:    69b8        .i      LDR      r0,[r7,#0x18]
        0x00000d9c:    b128        (.      CBZ      r0,0xdaa ; xTaskGenericCreate + 362
        0x00000d9e:    6838        8h      LDR      r0,[r7,#0]
        0x00000da0:    6ac0        .j      LDR      r0,[r0,#0x2c]
        0x00000da2:    42b0        .B      CMP      r0,r6
        0x00000da4:    d201        ..      BCS      0xdaa ; xTaskGenericCreate + 362
        0x00000da6:    f001fa2e    ....    BL       vPortYieldFromISR ; 0x2206
        0x00000daa:    b004        ..      ADD      sp,sp,#0x10
        0x00000dac:    4620         F      MOV      r0,r4
        0x00000dae:    e8bd9ff0    ....    POP      {r4-r12,pc}
        0x00000db2:    f04f34ff    O..4    MOV      r4,#0xffffffff
        0x00000db6:    e7f8        ..      B        0xdaa ; xTaskGenericCreate + 362
    vTaskDelete
        0x00000db8:    b570        p.      PUSH     {r4-r6,lr}
        0x00000dba:    4605        .F      MOV      r5,r0
        0x00000dbc:    f001fa29    ..).    BL       vPortEnterCritical ; 0x2212
        0x00000dc0:    4eca        .N      LDR      r6,[pc,#808] ; [0x10ec] = 0x20000084
        0x00000dc2:    6830        0h      LDR      r0,[r6,#0]
        0x00000dc4:    4285        .B      CMP      r5,r0
        0x00000dc6:    d101        ..      BNE      0xdcc ; vTaskDelete + 20
        0x00000dc8:    2500        .%      MOVS     r5,#0
        0x00000dca:    e020         .      B        0xe0e ; vTaskDelete + 86
        0x00000dcc:    b1fd        ..      CBZ      r5,0xe0e ; vTaskDelete + 86
        0x00000dce:    462c        ,F      MOV      r4,r5
        0x00000dd0:    1d20         .      ADDS     r0,r4,#4
        0x00000dd2:    f000fe29    ..).    BL       uxListRemove ; 0x1a28
        0x00000dd6:    6aa0        .j      LDR      r0,[r4,#0x28]
        0x00000dd8:    b118        ..      CBZ      r0,0xde2 ; vTaskDelete + 42
        0x00000dda:    f1040018    ....    ADD      r0,r4,#0x18
        0x00000dde:    f000fe23    ..#.    BL       uxListRemove ; 0x1a28
        0x00000de2:    48c3        .H      LDR      r0,[pc,#780] ; [0x10f0] = 0x20000140
        0x00000de4:    1d21        !.      ADDS     r1,r4,#4
        0x00000de6:    30a0        .0      ADDS     r0,r0,#0xa0
        0x00000de8:    f000fdf8    ....    BL       vListInsertEnd ; 0x19dc
        0x00000dec:    6870        ph      LDR      r0,[r6,#4]
        0x00000dee:    1c40        @.      ADDS     r0,r0,#1
        0x00000df0:    6070        p`      STR      r0,[r6,#4]
        0x00000df2:    6af0        .j      LDR      r0,[r6,#0x2c]
        0x00000df4:    1c40        @.      ADDS     r0,r0,#1
        0x00000df6:    62f0        .b      STR      r0,[r6,#0x2c]
        0x00000df8:    f001fa11    ....    BL       vPortExitCritical ; 0x221e
        0x00000dfc:    69b0        .i      LDR      r0,[r6,#0x18]
        0x00000dfe:    2800        .(      CMP      r0,#0
        0x00000e00:    d007        ..      BEQ      0xe12 ; vTaskDelete + 90
        0x00000e02:    2d00        .-      CMP      r5,#0
        0x00000e04:    d105        ..      BNE      0xe12 ; vTaskDelete + 90
        0x00000e06:    e8bd4070    ..p@    POP      {r4-r6,lr}
        0x00000e0a:    f001b9fc    ....    B.W      vPortYieldFromISR ; 0x2206
        0x00000e0e:    6834        4h      LDR      r4,[r6,#0]
        0x00000e10:    e7de        ..      B        0xdd0 ; vTaskDelete + 24
        0x00000e12:    bd70        p.      POP      {r4-r6,pc}
    vTaskIncrementTick
        0x00000e14:    e92d41f0    -..A    PUSH     {r4-r8,lr}
        0x00000e18:    4db4        .M      LDR      r5,[pc,#720] ; [0x10ec] = 0x20000084
        0x00000e1a:    69e8        .i      LDR      r0,[r5,#0x1c]
        0x00000e1c:    b158        X.      CBZ      r0,0xe36 ; vTaskIncrementTick + 34
        0x00000e1e:    6a28        (j      LDR      r0,[r5,#0x20]
        0x00000e20:    1c40        @.      ADDS     r0,r0,#1
        0x00000e22:    6228        (b      STR      r0,[r5,#0x20]
        0x00000e24:    f7fffb11    ....    BL       vApplicationTickHook ; 0x44a
        0x00000e28:    6a28        (j      LDR      r0,[r5,#0x20]
        0x00000e2a:    2800        .(      CMP      r0,#0
        0x00000e2c:    d14a        J.      BNE      0xec4 ; vTaskIncrementTick + 176
        0x00000e2e:    e8bd41f0    ...A    POP      {r4-r8,lr}
        0x00000e32:    f7ffbb0a    ....    B        vApplicationTickHook ; 0x44a
        0x00000e36:    68e8        .h      LDR      r0,[r5,#0xc]
        0x00000e38:    1c40        @.      ADDS     r0,r0,#1
        0x00000e3a:    60e8        .`      STR      r0,[r5,#0xc]
        0x00000e3c:    68e8        .h      LDR      r0,[r5,#0xc]
        0x00000e3e:    f04f36ff    O..6    MOV      r6,#0xffffffff
        0x00000e42:    b9a0        ..      CBNZ     r0,0xe6e ; vTaskIncrementTick + 90
        0x00000e44:    6b68        hk      LDR      r0,[r5,#0x34]
        0x00000e46:    6800        .h      LDR      r0,[r0,#0]
        0x00000e48:    b110        ..      CBZ      r0,0xe50 ; vTaskIncrementTick + 60
        0x00000e4a:    f7fff9cf    ....    BL       ulPortSetInterruptMask ; 0x1ec
        0x00000e4e:    e7fe        ..      B        0xe4e ; vTaskIncrementTick + 58
        0x00000e50:    6b68        hk      LDR      r0,[r5,#0x34]
        0x00000e52:    6ba9        .k      LDR      r1,[r5,#0x38]
        0x00000e54:    6369        ic      STR      r1,[r5,#0x34]
        0x00000e56:    63a8        .c      STR      r0,[r5,#0x38]
        0x00000e58:    6aa8        .j      LDR      r0,[r5,#0x28]
        0x00000e5a:    1c40        @.      ADDS     r0,r0,#1
        0x00000e5c:    62a8        .b      STR      r0,[r5,#0x28]
        0x00000e5e:    6b68        hk      LDR      r0,[r5,#0x34]
        0x00000e60:    6800        .h      LDR      r0,[r0,#0]
        0x00000e62:    b1a8        ..      CBZ      r0,0xe90 ; vTaskIncrementTick + 124
        0x00000e64:    6b68        hk      LDR      r0,[r5,#0x34]
        0x00000e66:    68c0        .h      LDR      r0,[r0,#0xc]
        0x00000e68:    68c0        .h      LDR      r0,[r0,#0xc]
        0x00000e6a:    6840        @h      LDR      r0,[r0,#4]
        0x00000e6c:    6328        (c      STR      r0,[r5,#0x30]
        0x00000e6e:    68e8        .h      LDR      r0,[r5,#0xc]
        0x00000e70:    6b29        )k      LDR      r1,[r5,#0x30]
        0x00000e72:    4288        .B      CMP      r0,r1
        0x00000e74:    d3d8        ..      BCC      0xe28 ; vTaskIncrementTick + 20
        0x00000e76:    4f9e        .O      LDR      r7,[pc,#632] ; [0x10f0] = 0x20000140
        0x00000e78:    6b68        hk      LDR      r0,[r5,#0x34]
        0x00000e7a:    6800        .h      LDR      r0,[r0,#0]
        0x00000e7c:    b150        P.      CBZ      r0,0xe94 ; vTaskIncrementTick + 128
        0x00000e7e:    6b68        hk      LDR      r0,[r5,#0x34]
        0x00000e80:    68c0        .h      LDR      r0,[r0,#0xc]
        0x00000e82:    68c4        .h      LDR      r4,[r0,#0xc]
        0x00000e84:    68e9        .h      LDR      r1,[r5,#0xc]
        0x00000e86:    6860        `h      LDR      r0,[r4,#4]
        0x00000e88:    4281        .B      CMP      r1,r0
        0x00000e8a:    d205        ..      BCS      0xe98 ; vTaskIncrementTick + 132
        0x00000e8c:    6328        (c      STR      r0,[r5,#0x30]
        0x00000e8e:    e7cb        ..      B        0xe28 ; vTaskIncrementTick + 20
        0x00000e90:    632e        .c      STR      r6,[r5,#0x30]
        0x00000e92:    e7ec        ..      B        0xe6e ; vTaskIncrementTick + 90
        0x00000e94:    632e        .c      STR      r6,[r5,#0x30]
        0x00000e96:    e7c7        ..      B        0xe28 ; vTaskIncrementTick + 20
        0x00000e98:    1d20         .      ADDS     r0,r4,#4
        0x00000e9a:    f000fdc5    ....    BL       uxListRemove ; 0x1a28
        0x00000e9e:    6aa0        .j      LDR      r0,[r4,#0x28]
        0x00000ea0:    b118        ..      CBZ      r0,0xeaa ; vTaskIncrementTick + 150
        0x00000ea2:    f1040018    ....    ADD      r0,r4,#0x18
        0x00000ea6:    f000fdbf    ....    BL       uxListRemove ; 0x1a28
        0x00000eaa:    6ae0        .j      LDR      r0,[r4,#0x2c]
        0x00000eac:    6969        ii      LDR      r1,[r5,#0x14]
        0x00000eae:    4288        .B      CMP      r0,r1
        0x00000eb0:    d900        ..      BLS      0xeb4 ; vTaskIncrementTick + 160
        0x00000eb2:    6168        ha      STR      r0,[r5,#0x14]
        0x00000eb4:    eb000080    ....    ADD      r0,r0,r0,LSL #2
        0x00000eb8:    eb070080    ....    ADD      r0,r7,r0,LSL #2
        0x00000ebc:    1d21        !.      ADDS     r1,r4,#4
        0x00000ebe:    f000fd8d    ....    BL       vListInsertEnd ; 0x19dc
        0x00000ec2:    e7d9        ..      B        0xe78 ; vTaskIncrementTick + 100
        0x00000ec4:    e8bd81f0    ....    POP      {r4-r8,pc}
    xTaskResumeAll
        0x00000ec8:    e92d47f0    -..G    PUSH     {r4-r10,lr}
        0x00000ecc:    4d87        .M      LDR      r5,[pc,#540] ; [0x10ec] = 0x20000084
        0x00000ece:    2700        .'      MOVS     r7,#0
        0x00000ed0:    69e8        .i      LDR      r0,[r5,#0x1c]
        0x00000ed2:    b138        8.      CBZ      r0,0xee4 ; xTaskResumeAll + 28
        0x00000ed4:    f001f99d    ....    BL       vPortEnterCritical ; 0x2212
        0x00000ed8:    69e8        .i      LDR      r0,[r5,#0x1c]
        0x00000eda:    1e40        @.      SUBS     r0,r0,#1
        0x00000edc:    61e8        .a      STR      r0,[r5,#0x1c]
        0x00000ede:    69e8        .i      LDR      r0,[r5,#0x1c]
        0x00000ee0:    b118        ..      CBZ      r0,0xeea ; xTaskResumeAll + 34
        0x00000ee2:    e042        B.      B        0xf6a ; xTaskResumeAll + 162
        0x00000ee4:    f7fff982    ....    BL       ulPortSetInterruptMask ; 0x1ec
        0x00000ee8:    e7fe        ..      B        0xee8 ; xTaskResumeAll + 32
        0x00000eea:    68a8        .h      LDR      r0,[r5,#8]
        0x00000eec:    b398        ..      CBZ      r0,0xf56 ; xTaskResumeAll + 142
        0x00000eee:    f8df8200    ....    LDR      r8,[pc,#512] ; [0x10f0] = 0x20000140
        0x00000ef2:    2600        .&      MOVS     r6,#0
        0x00000ef4:    f108088c    ....    ADD      r8,r8,#0x8c
        0x00000ef8:    f8df91f4    ....    LDR      r9,[pc,#500] ; [0x10f0] = 0x20000140
        0x00000efc:    e01a        ..      B        0xf34 ; xTaskResumeAll + 108
        0x00000efe:    68c0        .h      LDR      r0,[r0,#0xc]
        0x00000f00:    68c4        .h      LDR      r4,[r0,#0xc]
        0x00000f02:    f1040018    ....    ADD      r0,r4,#0x18
        0x00000f06:    f000fd8f    ....    BL       uxListRemove ; 0x1a28
        0x00000f0a:    1d20         .      ADDS     r0,r4,#4
        0x00000f0c:    f000fd8c    ....    BL       uxListRemove ; 0x1a28
        0x00000f10:    6ae0        .j      LDR      r0,[r4,#0x2c]
        0x00000f12:    6969        ii      LDR      r1,[r5,#0x14]
        0x00000f14:    4288        .B      CMP      r0,r1
        0x00000f16:    d900        ..      BLS      0xf1a ; xTaskResumeAll + 82
        0x00000f18:    6168        ha      STR      r0,[r5,#0x14]
        0x00000f1a:    eb000180    ....    ADD      r1,r0,r0,LSL #2
        0x00000f1e:    eb090081    ....    ADD      r0,r9,r1,LSL #2
        0x00000f22:    1d21        !.      ADDS     r1,r4,#4
        0x00000f24:    f000fd5a    ..Z.    BL       vListInsertEnd ; 0x19dc
        0x00000f28:    6ae0        .j      LDR      r0,[r4,#0x2c]
        0x00000f2a:    6829        )h      LDR      r1,[r5,#0]
        0x00000f2c:    6ac9        .j      LDR      r1,[r1,#0x2c]
        0x00000f2e:    4288        .B      CMP      r0,r1
        0x00000f30:    d300        ..      BCC      0xf34 ; xTaskResumeAll + 108
        0x00000f32:    2601        .&      MOVS     r6,#1
        0x00000f34:    f8d81000    ....    LDR      r1,[r8,#0]
        0x00000f38:    4640        @F      MOV      r0,r8
        0x00000f3a:    2900        .)      CMP      r1,#0
        0x00000f3c:    d1df        ..      BNE      0xefe ; xTaskResumeAll + 54
        0x00000f3e:    6a28        (j      LDR      r0,[r5,#0x20]
        0x00000f40:    b928        (.      CBNZ     r0,0xf4e ; xTaskResumeAll + 134
        0x00000f42:    e009        ..      B        0xf58 ; xTaskResumeAll + 144
        0x00000f44:    f7ffff66    ..f.    BL       vTaskIncrementTick ; 0xe14
        0x00000f48:    6a28        (j      LDR      r0,[r5,#0x20]
        0x00000f4a:    1e40        @.      SUBS     r0,r0,#1
        0x00000f4c:    6228        (b      STR      r0,[r5,#0x20]
        0x00000f4e:    6a28        (j      LDR      r0,[r5,#0x20]
        0x00000f50:    2800        .(      CMP      r0,#0
        0x00000f52:    d1f7        ..      BNE      0xf44 ; xTaskResumeAll + 124
        0x00000f54:    e004        ..      B        0xf60 ; xTaskResumeAll + 152
        0x00000f56:    e008        ..      B        0xf6a ; xTaskResumeAll + 162
        0x00000f58:    b916        ..      CBNZ     r6,0xf60 ; xTaskResumeAll + 152
        0x00000f5a:    6a68        hj      LDR      r0,[r5,#0x24]
        0x00000f5c:    2801        .(      CMP      r0,#1
        0x00000f5e:    d104        ..      BNE      0xf6a ; xTaskResumeAll + 162
        0x00000f60:    2000        .       MOVS     r0,#0
        0x00000f62:    2701        .'      MOVS     r7,#1
        0x00000f64:    6268        hb      STR      r0,[r5,#0x24]
        0x00000f66:    f001f94e    ..N.    BL       vPortYieldFromISR ; 0x2206
        0x00000f6a:    f001f958    ..X.    BL       vPortExitCritical ; 0x221e
        0x00000f6e:    4638        8F      MOV      r0,r7
        0x00000f70:    e8bd87f0    ....    POP      {r4-r10,pc}
    prvAddCurrentTaskToDelayedList
        0x00000f74:    b570        p.      PUSH     {r4-r6,lr}
        0x00000f76:    4d5d        ]M      LDR      r5,[pc,#372] ; [0x10ec] = 0x20000084
        0x00000f78:    4604        .F      MOV      r4,r0
        0x00000f7a:    6828        (h      LDR      r0,[r5,#0]
        0x00000f7c:    6044        D`      STR      r4,[r0,#4]
        0x00000f7e:    68e8        .h      LDR      r0,[r5,#0xc]
        0x00000f80:    6829        )h      LDR      r1,[r5,#0]
        0x00000f82:    4284        .B      CMP      r4,r0
        0x00000f84:    d205        ..      BCS      0xf92 ; prvAddCurrentTaskToDelayedList + 30
        0x00000f86:    6ba8        .k      LDR      r0,[r5,#0x38]
        0x00000f88:    e8bd4070    ..p@    POP      {r4-r6,lr}
        0x00000f8c:    1d09        ..      ADDS     r1,r1,#4
        0x00000f8e:    f000bd33    ..3.    B.W      vListInsert ; 0x19f8
        0x00000f92:    6b68        hk      LDR      r0,[r5,#0x34]
        0x00000f94:    1d09        ..      ADDS     r1,r1,#4
        0x00000f96:    f000fd2f    ../.    BL       vListInsert ; 0x19f8
        0x00000f9a:    6b28        (k      LDR      r0,[r5,#0x30]
        0x00000f9c:    4284        .B      CMP      r4,r0
        0x00000f9e:    d200        ..      BCS      0xfa2 ; prvAddCurrentTaskToDelayedList + 46
        0x00000fa0:    632c        ,c      STR      r4,[r5,#0x30]
        0x00000fa2:    bd70        p.      POP      {r4-r6,pc}
    vTaskSuspendAll
        0x00000fa4:    4851        QH      LDR      r0,[pc,#324] ; [0x10ec] = 0x20000084
        0x00000fa6:    69c1        .i      LDR      r1,[r0,#0x1c]
        0x00000fa8:    1c49        I.      ADDS     r1,r1,#1
        0x00000faa:    61c1        .a      STR      r1,[r0,#0x1c]
        0x00000fac:    4770        pG      BX       lr
    vTaskDelayUntil
        0x00000fae:    b570        p.      PUSH     {r4-r6,lr}
        0x00000fb0:    460c        .F      MOV      r4,r1
        0x00000fb2:    0003        ..      MOVS     r3,r0
        0x00000fb4:    f04f0200    O...    MOV      r2,#0
        0x00000fb8:    d00b        ..      BEQ      0xfd2 ; vTaskDelayUntil + 36
        0x00000fba:    b16c        l.      CBZ      r4,0xfd8 ; vTaskDelayUntil + 42
        0x00000fbc:    f7fffff2    ....    BL       vTaskSuspendAll ; 0xfa4
        0x00000fc0:    494a        JI      LDR      r1,[pc,#296] ; [0x10ec] = 0x20000084
        0x00000fc2:    6818        .h      LDR      r0,[r3,#0]
        0x00000fc4:    68cd        .h      LDR      r5,[r1,#0xc]
        0x00000fc6:    4404        .D      ADD      r4,r4,r0
        0x00000fc8:    42a8        .B      CMP      r0,r5
        0x00000fca:    d908        ..      BLS      0xfde ; vTaskDelayUntil + 48
        0x00000fcc:    42a0        .B      CMP      r0,r4
        0x00000fce:    d808        ..      BHI      0xfe2 ; vTaskDelayUntil + 52
        0x00000fd0:    e00b        ..      B        0xfea ; vTaskDelayUntil + 60
        0x00000fd2:    f7fff90b    ....    BL       ulPortSetInterruptMask ; 0x1ec
        0x00000fd6:    e7fe        ..      B        0xfd6 ; vTaskDelayUntil + 40
        0x00000fd8:    f7fff908    ....    BL       ulPortSetInterruptMask ; 0x1ec
        0x00000fdc:    e7fe        ..      B        0xfdc ; vTaskDelayUntil + 46
        0x00000fde:    42a0        .B      CMP      r0,r4
        0x00000fe0:    d802        ..      BHI      0xfe8 ; vTaskDelayUntil + 58
        0x00000fe2:    68c8        .h      LDR      r0,[r1,#0xc]
        0x00000fe4:    4284        .B      CMP      r4,r0
        0x00000fe6:    d900        ..      BLS      0xfea ; vTaskDelayUntil + 60
        0x00000fe8:    2201        ."      MOVS     r2,#1
        0x00000fea:    601c        .`      STR      r4,[r3,#0]
        0x00000fec:    b132        2.      CBZ      r2,0xffc ; vTaskDelayUntil + 78
        0x00000fee:    6808        .h      LDR      r0,[r1,#0]
        0x00000ff0:    1d00        ..      ADDS     r0,r0,#4
        0x00000ff2:    f000fd19    ....    BL       uxListRemove ; 0x1a28
        0x00000ff6:    4620         F      MOV      r0,r4
        0x00000ff8:    f7ffffbc    ....    BL       prvAddCurrentTaskToDelayedList ; 0xf74
        0x00000ffc:    f7ffff64    ..d.    BL       xTaskResumeAll ; 0xec8
        0x00001000:    2800        .(      CMP      r0,#0
        0x00001002:    d103        ..      BNE      0x100c ; vTaskDelayUntil + 94
        0x00001004:    e8bd4070    ..p@    POP      {r4-r6,lr}
        0x00001008:    f001b8fd    ....    B.W      vPortYieldFromISR ; 0x2206
        0x0000100c:    bd70        p.      POP      {r4-r6,pc}
    vTaskDelay
        0x0000100e:    b510        ..      PUSH     {r4,lr}
        0x00001010:    0002        ..      MOVS     r2,r0
        0x00001012:    d00f        ..      BEQ      0x1034 ; vTaskDelay + 38
        0x00001014:    f7ffffc6    ....    BL       vTaskSuspendAll ; 0xfa4
        0x00001018:    4834        4H      LDR      r0,[pc,#208] ; [0x10ec] = 0x20000084
        0x0000101a:    68c1        .h      LDR      r1,[r0,#0xc]
        0x0000101c:    6800        .h      LDR      r0,[r0,#0]
        0x0000101e:    188c        ..      ADDS     r4,r1,r2
        0x00001020:    1d00        ..      ADDS     r0,r0,#4
        0x00001022:    f000fd01    ....    BL       uxListRemove ; 0x1a28
        0x00001026:    4620         F      MOV      r0,r4
        0x00001028:    f7ffffa4    ....    BL       prvAddCurrentTaskToDelayedList ; 0xf74
        0x0000102c:    f7ffff4c    ..L.    BL       xTaskResumeAll ; 0xec8
        0x00001030:    2800        .(      CMP      r0,#0
        0x00001032:    d103        ..      BNE      0x103c ; vTaskDelay + 46
        0x00001034:    e8bd4010    ...@    POP      {r4,lr}
        0x00001038:    f001b8e5    ....    B.W      vPortYieldFromISR ; 0x2206
        0x0000103c:    bd10        ..      POP      {r4,pc}
    uxTaskPriorityGet
        0x0000103e:    b510        ..      PUSH     {r4,lr}
        0x00001040:    4604        .F      MOV      r4,r0
        0x00001042:    f001f8e6    ....    BL       vPortEnterCritical ; 0x2212
        0x00001046:    b90c        ..      CBNZ     r4,0x104c ; uxTaskPriorityGet + 14
        0x00001048:    4828        (H      LDR      r0,[pc,#160] ; [0x10ec] = 0x20000084
        0x0000104a:    6804        .h      LDR      r4,[r0,#0]
        0x0000104c:    6ae4        .j      LDR      r4,[r4,#0x2c]
        0x0000104e:    f001f8e6    ....    BL       vPortExitCritical ; 0x221e
        0x00001052:    4620         F      MOV      r0,r4
        0x00001054:    bd10        ..      POP      {r4,pc}
    vTaskPrioritySet
        0x00001056:    e92d41f0    -..A    PUSH     {r4-r8,lr}
        0x0000105a:    2700        .'      MOVS     r7,#0
        0x0000105c:    460d        .F      MOV      r5,r1
        0x0000105e:    4606        .F      MOV      r6,r0
        0x00001060:    2905        .)      CMP      r1,#5
        0x00001062:    d302        ..      BCC      0x106a ; vTaskPrioritySet + 20
        0x00001064:    f7fff8c2    ....    BL       ulPortSetInterruptMask ; 0x1ec
        0x00001068:    e7fe        ..      B        0x1068 ; vTaskPrioritySet + 18
        0x0000106a:    f001f8d2    ....    BL       vPortEnterCritical ; 0x2212
        0x0000106e:    f8df807c    ..|.    LDR      r8,[pc,#124] ; [0x10ec] = 0x20000084
        0x00001072:    f8d80000    ....    LDR      r0,[r8,#0]
        0x00001076:    4286        .B      CMP      r6,r0
        0x00001078:    d101        ..      BNE      0x107e ; vTaskPrioritySet + 40
        0x0000107a:    2600        .&      MOVS     r6,#0
        0x0000107c:    e008        ..      B        0x1090 ; vTaskPrioritySet + 58
        0x0000107e:    b13e        >.      CBZ      r6,0x1090 ; vTaskPrioritySet + 58
        0x00001080:    4634        4F      MOV      r4,r6
        0x00001082:    6ca0        .l      LDR      r0,[r4,#0x48]
        0x00001084:    42a8        .B      CMP      r0,r5
        0x00001086:    d02c        ,.      BEQ      0x10e2 ; vTaskPrioritySet + 140
        0x00001088:    4285        .B      CMP      r5,r0
        0x0000108a:    d904        ..      BLS      0x1096 ; vTaskPrioritySet + 64
        0x0000108c:    b926        &.      CBNZ     r6,0x1098 ; vTaskPrioritySet + 66
        0x0000108e:    e004        ..      B        0x109a ; vTaskPrioritySet + 68
        0x00001090:    f8d84000    ...@    LDR      r4,[r8,#0]
        0x00001094:    e7f5        ..      B        0x1082 ; vTaskPrioritySet + 44
        0x00001096:    b906        ..      CBNZ     r6,0x109a ; vTaskPrioritySet + 68
        0x00001098:    2701        .'      MOVS     r7,#1
        0x0000109a:    6ae1        .j      LDR      r1,[r4,#0x2c]
        0x0000109c:    4288        .B      CMP      r0,r1
        0x0000109e:    d100        ..      BNE      0x10a2 ; vTaskPrioritySet + 76
        0x000010a0:    62e5        .b      STR      r5,[r4,#0x2c]
        0x000010a2:    f1c50105    ....    RSB      r1,r5,#5
        0x000010a6:    64a5        .d      STR      r5,[r4,#0x48]
        0x000010a8:    61a1        .a      STR      r1,[r4,#0x18]
        0x000010aa:    4d11        .M      LDR      r5,[pc,#68] ; [0x10f0] = 0x20000140
        0x000010ac:    eb000080    ....    ADD      r0,r0,r0,LSL #2
        0x000010b0:    6961        ai      LDR      r1,[r4,#0x14]
        0x000010b2:    eb050080    ....    ADD      r0,r5,r0,LSL #2
        0x000010b6:    4281        .B      CMP      r1,r0
        0x000010b8:    d110        ..      BNE      0x10dc ; vTaskPrioritySet + 134
        0x000010ba:    1d20         .      ADDS     r0,r4,#4
        0x000010bc:    f000fcb4    ....    BL       uxListRemove ; 0x1a28
        0x000010c0:    6ae0        .j      LDR      r0,[r4,#0x2c]
        0x000010c2:    f8d82014    ...     LDR      r2,[r8,#0x14]
        0x000010c6:    4641        AF      MOV      r1,r8
        0x000010c8:    4290        .B      CMP      r0,r2
        0x000010ca:    d900        ..      BLS      0x10ce ; vTaskPrioritySet + 120
        0x000010cc:    6148        Ha      STR      r0,[r1,#0x14]
        0x000010ce:    eb000080    ....    ADD      r0,r0,r0,LSL #2
        0x000010d2:    eb050080    ....    ADD      r0,r5,r0,LSL #2
        0x000010d6:    1d21        !.      ADDS     r1,r4,#4
        0x000010d8:    f000fc80    ....    BL       vListInsertEnd ; 0x19dc
        0x000010dc:    b10f        ..      CBZ      r7,0x10e2 ; vTaskPrioritySet + 140
        0x000010de:    f001f892    ....    BL       vPortYieldFromISR ; 0x2206
        0x000010e2:    e8bd41f0    ...A    POP      {r4-r8,lr}
        0x000010e6:    f001b89a    ....    B.W      vPortExitCritical ; 0x221e
    $d
        0x000010ea:    0000        ..      DCW    0
        0x000010ec:    20000084    ...     DCD    536871044
        0x000010f0:    20000140    @..     DCD    536871232
    $t
    vTaskSwitchContext
        0x000010f4:    49fb        .I      LDR      r1,[pc,#1004] ; [0x14e4] = 0x20000084
        0x000010f6:    b510        ..      PUSH     {r4,lr}
        0x000010f8:    69c8        .i      LDR      r0,[r1,#0x1c]
        0x000010fa:    4afb        .J      LDR      r2,[pc,#1004] ; [0x14e8] = 0x20000140
        0x000010fc:    b130        0.      CBZ      r0,0x110c ; vTaskSwitchContext + 24
        0x000010fe:    2001        .       MOVS     r0,#1
        0x00001100:    6248        Hb      STR      r0,[r1,#0x24]
        0x00001102:    bd10        ..      POP      {r4,pc}
        0x00001104:    b1d0        ..      CBZ      r0,0x113c ; vTaskSwitchContext + 72
        0x00001106:    6948        Hi      LDR      r0,[r1,#0x14]
        0x00001108:    1e40        @.      SUBS     r0,r0,#1
        0x0000110a:    6148        Ha      STR      r0,[r1,#0x14]
        0x0000110c:    6948        Hi      LDR      r0,[r1,#0x14]
        0x0000110e:    eb000080    ....    ADD      r0,r0,r0,LSL #2
        0x00001112:    f8520020    R. .    LDR      r0,[r2,r0,LSL #2]
        0x00001116:    2800        .(      CMP      r0,#0
        0x00001118:    6948        Hi      LDR      r0,[r1,#0x14]
        0x0000111a:    d0f3        ..      BEQ      0x1104 ; vTaskSwitchContext + 16
        0x0000111c:    eb000080    ....    ADD      r0,r0,r0,LSL #2
        0x00001120:    eb020080    ....    ADD      r0,r2,r0,LSL #2
        0x00001124:    6842        Bh      LDR      r2,[r0,#4]
        0x00001126:    6852        Rh      LDR      r2,[r2,#4]
        0x00001128:    f1000308    ....    ADD      r3,r0,#8
        0x0000112c:    6042        B`      STR      r2,[r0,#4]
        0x0000112e:    429a        .B      CMP      r2,r3
        0x00001130:    d101        ..      BNE      0x1136 ; vTaskSwitchContext + 66
        0x00001132:    6852        Rh      LDR      r2,[r2,#4]
        0x00001134:    6042        B`      STR      r2,[r0,#4]
        0x00001136:    68d0        .h      LDR      r0,[r2,#0xc]
        0x00001138:    6008        .`      STR      r0,[r1,#0]
        0x0000113a:    bd10        ..      POP      {r4,pc}
        0x0000113c:    f7fff856    ..V.    BL       ulPortSetInterruptMask ; 0x1ec
        0x00001140:    e7fe        ..      B        0x1140 ; vTaskSwitchContext + 76
    vTaskSuspend
        0x00001142:    b570        p.      PUSH     {r4-r6,lr}
        0x00001144:    4605        .F      MOV      r5,r0
        0x00001146:    f001f864    ..d.    BL       vPortEnterCritical ; 0x2212
        0x0000114a:    4ee6        .N      LDR      r6,[pc,#920] ; [0x14e4] = 0x20000084
        0x0000114c:    6830        0h      LDR      r0,[r6,#0]
        0x0000114e:    4285        .B      CMP      r5,r0
        0x00001150:    d101        ..      BNE      0x1156 ; vTaskSuspend + 20
        0x00001152:    2500        .%      MOVS     r5,#0
        0x00001154:    e019        ..      B        0x118a ; vTaskSuspend + 72
        0x00001156:    b1c5        ..      CBZ      r5,0x118a ; vTaskSuspend + 72
        0x00001158:    462c        ,F      MOV      r4,r5
        0x0000115a:    1d20         .      ADDS     r0,r4,#4
        0x0000115c:    f000fc64    ..d.    BL       uxListRemove ; 0x1a28
        0x00001160:    6aa0        .j      LDR      r0,[r4,#0x28]
        0x00001162:    b118        ..      CBZ      r0,0x116c ; vTaskSuspend + 42
        0x00001164:    f1040018    ....    ADD      r0,r4,#0x18
        0x00001168:    f000fc5e    ..^.    BL       uxListRemove ; 0x1a28
        0x0000116c:    48de        .H      LDR      r0,[pc,#888] ; [0x14e8] = 0x20000140
        0x0000116e:    1d21        !.      ADDS     r1,r4,#4
        0x00001170:    30b4        .0      ADDS     r0,r0,#0xb4
        0x00001172:    f000fc33    ..3.    BL       vListInsertEnd ; 0x19dc
        0x00001176:    f001f852    ..R.    BL       vPortExitCritical ; 0x221e
        0x0000117a:    2d00        .-      CMP      r5,#0
        0x0000117c:    d10f        ..      BNE      0x119e ; vTaskSuspend + 92
        0x0000117e:    69b0        .i      LDR      r0,[r6,#0x18]
        0x00001180:    b128        (.      CBZ      r0,0x118e ; vTaskSuspend + 76
        0x00001182:    e8bd4070    ..p@    POP      {r4-r6,lr}
        0x00001186:    f001b83e    ..>.    B.W      vPortYieldFromISR ; 0x2206
        0x0000118a:    6834        4h      LDR      r4,[r6,#0]
        0x0000118c:    e7e5        ..      B        0x115a ; vTaskSuspend + 24
        0x0000118e:    48d6        .H      LDR      r0,[pc,#856] ; [0x14e8] = 0x20000140
        0x00001190:    30b4        .0      ADDS     r0,r0,#0xb4
        0x00001192:    6800        .h      LDR      r0,[r0,#0]
        0x00001194:    68b1        .h      LDR      r1,[r6,#8]
        0x00001196:    4288        .B      CMP      r0,r1
        0x00001198:    d102        ..      BNE      0x11a0 ; vTaskSuspend + 94
        0x0000119a:    2000        .       MOVS     r0,#0
        0x0000119c:    6030        0`      STR      r0,[r6,#0]
        0x0000119e:    bd70        p.      POP      {r4-r6,pc}
        0x000011a0:    e8bd4070    ..p@    POP      {r4-r6,lr}
        0x000011a4:    e7a6        ..      B        vTaskSwitchContext ; 0x10f4
    xTaskIsTaskSuspended
        0x000011a6:    b510        ..      PUSH     {r4,lr}
        0x000011a8:    2100        .!      MOVS     r1,#0
        0x000011aa:    b158        X.      CBZ      r0,0x11c4 ; xTaskIsTaskSuspended + 30
        0x000011ac:    4bce        .K      LDR      r3,[pc,#824] ; [0x14e8] = 0x20000140
        0x000011ae:    6942        Bi      LDR      r2,[r0,#0x14]
        0x000011b0:    33b4        .3      ADDS     r3,r3,#0xb4
        0x000011b2:    429a        .B      CMP      r2,r3
        0x000011b4:    d10a        ..      BNE      0x11cc ; xTaskIsTaskSuspended + 38
        0x000011b6:    6a80        .j      LDR      r0,[r0,#0x28]
        0x000011b8:    f1a30228    ..(.    SUB      r2,r3,#0x28
        0x000011bc:    4290        .B      CMP      r0,r2
        0x000011be:    d005        ..      BEQ      0x11cc ; xTaskIsTaskSuspended + 38
        0x000011c0:    b118        ..      CBZ      r0,0x11ca ; xTaskIsTaskSuspended + 36
        0x000011c2:    e003        ..      B        0x11cc ; xTaskIsTaskSuspended + 38
        0x000011c4:    f7fff812    ....    BL       ulPortSetInterruptMask ; 0x1ec
        0x000011c8:    e7fe        ..      B        0x11c8 ; xTaskIsTaskSuspended + 34
        0x000011ca:    2101        .!      MOVS     r1,#1
        0x000011cc:    4608        .F      MOV      r0,r1
        0x000011ce:    bd10        ..      POP      {r4,pc}
    vTaskResume
        0x000011d0:    b570        p.      PUSH     {r4-r6,lr}
        0x000011d2:    b160        `.      CBZ      r0,0x11ee ; vTaskResume + 30
        0x000011d4:    4dc3        .M      LDR      r5,[pc,#780] ; [0x14e4] = 0x20000084
        0x000011d6:    4604        .F      MOV      r4,r0
        0x000011d8:    6828        (h      LDR      r0,[r5,#0]
        0x000011da:    4284        .B      CMP      r4,r0
        0x000011dc:    d025        %.      BEQ      0x122a ; vTaskResume + 90
        0x000011de:    f001f818    ....    BL       vPortEnterCritical ; 0x2212
        0x000011e2:    4620         F      MOV      r0,r4
        0x000011e4:    f7ffffdf    ....    BL       xTaskIsTaskSuspended ; 0x11a6
        0x000011e8:    2801        .(      CMP      r0,#1
        0x000011ea:    d003        ..      BEQ      0x11f4 ; vTaskResume + 36
        0x000011ec:    e019        ..      B        0x1222 ; vTaskResume + 82
        0x000011ee:    f7fefffd    ....    BL       ulPortSetInterruptMask ; 0x1ec
        0x000011f2:    e7fe        ..      B        0x11f2 ; vTaskResume + 34
        0x000011f4:    1d20         .      ADDS     r0,r4,#4
        0x000011f6:    f000fc17    ....    BL       uxListRemove ; 0x1a28
        0x000011fa:    6ae0        .j      LDR      r0,[r4,#0x2c]
        0x000011fc:    6969        ii      LDR      r1,[r5,#0x14]
        0x000011fe:    4288        .B      CMP      r0,r1
        0x00001200:    d900        ..      BLS      0x1204 ; vTaskResume + 52
        0x00001202:    6168        ha      STR      r0,[r5,#0x14]
        0x00001204:    49b8        .I      LDR      r1,[pc,#736] ; [0x14e8] = 0x20000140
        0x00001206:    eb000080    ....    ADD      r0,r0,r0,LSL #2
        0x0000120a:    eb010080    ....    ADD      r0,r1,r0,LSL #2
        0x0000120e:    1d21        !.      ADDS     r1,r4,#4
        0x00001210:    f000fbe4    ....    BL       vListInsertEnd ; 0x19dc
        0x00001214:    6ae0        .j      LDR      r0,[r4,#0x2c]
        0x00001216:    6829        )h      LDR      r1,[r5,#0]
        0x00001218:    6ac9        .j      LDR      r1,[r1,#0x2c]
        0x0000121a:    4288        .B      CMP      r0,r1
        0x0000121c:    d301        ..      BCC      0x1222 ; vTaskResume + 82
        0x0000121e:    f000fff2    ....    BL       vPortYieldFromISR ; 0x2206
        0x00001222:    e8bd4070    ..p@    POP      {r4-r6,lr}
        0x00001226:    f000bffa    ....    B.W      vPortExitCritical ; 0x221e
        0x0000122a:    bd70        p.      POP      {r4-r6,pc}
    xTaskResumeFromISR
        0x0000122c:    e92d41f0    -..A    PUSH     {r4-r8,lr}
        0x00001230:    2500        .%      MOVS     r5,#0
        0x00001232:    b148        H.      CBZ      r0,0x1248 ; xTaskResumeFromISR + 28
        0x00001234:    4604        .F      MOV      r4,r0
        0x00001236:    f7feffd9    ....    BL       ulPortSetInterruptMask ; 0x1ec
        0x0000123a:    4607        .F      MOV      r7,r0
        0x0000123c:    4620         F      MOV      r0,r4
        0x0000123e:    f7ffffb2    ....    BL       xTaskIsTaskSuspended ; 0x11a6
        0x00001242:    2801        .(      CMP      r0,#1
        0x00001244:    d003        ..      BEQ      0x124e ; xTaskResumeFromISR + 34
        0x00001246:    e022        ".      B        0x128e ; xTaskResumeFromISR + 98
        0x00001248:    f7feffd0    ....    BL       ulPortSetInterruptMask ; 0x1ec
        0x0000124c:    e7fe        ..      B        0x124c ; xTaskResumeFromISR + 32
        0x0000124e:    4ea5        .N      LDR      r6,[pc,#660] ; [0x14e4] = 0x20000084
        0x00001250:    69f0        .i      LDR      r0,[r6,#0x1c]
        0x00001252:    b120         .      CBZ      r0,0x125e ; xTaskResumeFromISR + 50
        0x00001254:    48a4        .H      LDR      r0,[pc,#656] ; [0x14e8] = 0x20000140
        0x00001256:    f1040118    ....    ADD      r1,r4,#0x18
        0x0000125a:    308c        .0      ADDS     r0,r0,#0x8c
        0x0000125c:    e015        ..      B        0x128a ; xTaskResumeFromISR + 94
        0x0000125e:    6ae0        .j      LDR      r0,[r4,#0x2c]
        0x00001260:    6831        1h      LDR      r1,[r6,#0]
        0x00001262:    6ac9        .j      LDR      r1,[r1,#0x2c]
        0x00001264:    4288        .B      CMP      r0,r1
        0x00001266:    d301        ..      BCC      0x126c ; xTaskResumeFromISR + 64
        0x00001268:    2501        .%      MOVS     r5,#1
        0x0000126a:    e000        ..      B        0x126e ; xTaskResumeFromISR + 66
        0x0000126c:    2500        .%      MOVS     r5,#0
        0x0000126e:    1d20         .      ADDS     r0,r4,#4
        0x00001270:    f000fbda    ....    BL       uxListRemove ; 0x1a28
        0x00001274:    6ae0        .j      LDR      r0,[r4,#0x2c]
        0x00001276:    6971        qi      LDR      r1,[r6,#0x14]
        0x00001278:    4288        .B      CMP      r0,r1
        0x0000127a:    d900        ..      BLS      0x127e ; xTaskResumeFromISR + 82
        0x0000127c:    6170        pa      STR      r0,[r6,#0x14]
        0x0000127e:    499a        .I      LDR      r1,[pc,#616] ; [0x14e8] = 0x20000140
        0x00001280:    eb000080    ....    ADD      r0,r0,r0,LSL #2
        0x00001284:    eb010080    ....    ADD      r0,r1,r0,LSL #2
        0x00001288:    1d21        !.      ADDS     r1,r4,#4
        0x0000128a:    f000fba7    ....    BL       vListInsertEnd ; 0x19dc
        0x0000128e:    4638        8F      MOV      r0,r7
        0x00001290:    f7feffb3    ....    BL       vPortClearInterruptMask ; 0x1fa
        0x00001294:    4628        (F      MOV      r0,r5
        0x00001296:    e615        ..      B        0xec4 ; vTaskIncrementTick + 176
    prvIdleTask
        0x00001298:    4c93        .L      LDR      r4,[pc,#588] ; [0x14e8] = 0x20000140
        0x0000129a:    f000f9da    ....    BL       prvCheckTasksWaitingTermination ; 0x1652
        0x0000129e:    6820         h      LDR      r0,[r4,#0]
        0x000012a0:    2801        .(      CMP      r0,#1
        0x000012a2:    d901        ..      BLS      0x12a8 ; prvIdleTask + 16
        0x000012a4:    f000ffaf    ....    BL       vPortYieldFromISR ; 0x2206
        0x000012a8:    f7fff8cb    ....    BL       vApplicationIdleHook ; 0x442
        0x000012ac:    e7f5        ..      B        0x129a ; prvIdleTask + 2
    vTaskStartScheduler
        0x000012ae:    b51f        ..      PUSH     {r0-r4,lr}
        0x000012b0:    2400        .$      MOVS     r4,#0
        0x000012b2:    9400        ..      STR      r4,[sp,#0]
        0x000012b4:    9401        ..      STR      r4,[sp,#4]
        0x000012b6:    9402        ..      STR      r4,[sp,#8]
        0x000012b8:    4623        #F      MOV      r3,r4
        0x000012ba:    2232        2"      MOVS     r2,#0x32
        0x000012bc:    a18b        ..      ADR      r1,{pc}+0x230 ; 0x14ec
        0x000012be:    488d        .H      LDR      r0,[pc,#564] ; [0x14f4] = 0x1299
        0x000012c0:    9403        ..      STR      r4,[sp,#0xc]
        0x000012c2:    f7fffcbd    ....    BL       xTaskGenericCreate ; 0xc40
        0x000012c6:    2801        .(      CMP      r0,#1
        0x000012c8:    d103        ..      BNE      0x12d2 ; vTaskStartScheduler + 36
        0x000012ca:    f000fa68    ..h.    BL       xTimerCreateTimerTask ; 0x179e
        0x000012ce:    2801        .(      CMP      r0,#1
        0x000012d0:    d004        ..      BEQ      0x12dc ; vTaskStartScheduler + 46
        0x000012d2:    2800        .(      CMP      r0,#0
        0x000012d4:    d10c        ..      BNE      0x12f0 ; vTaskStartScheduler + 66
        0x000012d6:    f7feff89    ....    BL       ulPortSetInterruptMask ; 0x1ec
        0x000012da:    e7fe        ..      B        0x12da ; vTaskStartScheduler + 44
        0x000012dc:    f7feff86    ....    BL       ulPortSetInterruptMask ; 0x1ec
        0x000012e0:    4880        .H      LDR      r0,[pc,#512] ; [0x14e4] = 0x20000084
        0x000012e2:    2101        .!      MOVS     r1,#1
        0x000012e4:    6181        .a      STR      r1,[r0,#0x18]
        0x000012e6:    60c4        .`      STR      r4,[r0,#0xc]
        0x000012e8:    e8bd401f    ...@    POP      {r0-r4,lr}
        0x000012ec:    f000bf70    ..p.    B.W      xPortStartScheduler ; 0x21d0
        0x000012f0:    bd1f        ..      POP      {r0-r4,pc}
    vTaskEndScheduler
        0x000012f2:    b510        ..      PUSH     {r4,lr}
        0x000012f4:    f7feff7a    ..z.    BL       ulPortSetInterruptMask ; 0x1ec
        0x000012f8:    497a        zI      LDR      r1,[pc,#488] ; [0x14e4] = 0x20000084
        0x000012fa:    2000        .       MOVS     r0,#0
        0x000012fc:    6188        .a      STR      r0,[r1,#0x18]
        0x000012fe:    e8bd4010    ...@    POP      {r4,lr}
        0x00001302:    f000bf7f    ....    B.W      vPortEndScheduler ; 0x2204
    xTaskGetTickCount
        0x00001306:    b510        ..      PUSH     {r4,lr}
        0x00001308:    f000ff83    ....    BL       vPortEnterCritical ; 0x2212
        0x0000130c:    4875        uH      LDR      r0,[pc,#468] ; [0x14e4] = 0x20000084
        0x0000130e:    68c4        .h      LDR      r4,[r0,#0xc]
        0x00001310:    f000ff85    ....    BL       vPortExitCritical ; 0x221e
        0x00001314:    4620         F      MOV      r0,r4
        0x00001316:    bd10        ..      POP      {r4,pc}
    xTaskGetTickCountFromISR
        0x00001318:    b510        ..      PUSH     {r4,lr}
        0x0000131a:    f7feff67    ..g.    BL       ulPortSetInterruptMask ; 0x1ec
        0x0000131e:    4971        qI      LDR      r1,[pc,#452] ; [0x14e4] = 0x20000084
        0x00001320:    68cc        .h      LDR      r4,[r1,#0xc]
        0x00001322:    f7feff6a    ..j.    BL       vPortClearInterruptMask ; 0x1fa
        0x00001326:    4620         F      MOV      r0,r4
        0x00001328:    bd10        ..      POP      {r4,pc}
    uxTaskGetNumberOfTasks
        0x0000132a:    486e        nH      LDR      r0,[pc,#440] ; [0x14e4] = 0x20000084
        0x0000132c:    6880        .h      LDR      r0,[r0,#8]
        0x0000132e:    4770        pG      BX       lr
    prvListTaskWithinSingleList
        0x00001330:    e92d43fe    -..C    PUSH     {r1-r9,lr}
        0x00001334:    4681        .F      MOV      r9,r0
        0x00001336:    6848        Hh      LDR      r0,[r1,#4]
        0x00001338:    4690        .F      MOV      r8,r2
        0x0000133a:    460d        .F      MOV      r5,r1
        0x0000133c:    6840        @h      LDR      r0,[r0,#4]
        0x0000133e:    f1010608    ....    ADD      r6,r1,#8
        0x00001342:    6048        H`      STR      r0,[r1,#4]
        0x00001344:    42b0        .B      CMP      r0,r6
        0x00001346:    d101        ..      BNE      0x134c ; prvListTaskWithinSingleList + 28
        0x00001348:    6841        Ah      LDR      r1,[r0,#4]
        0x0000134a:    6069        i`      STR      r1,[r5,#4]
        0x0000134c:    6868        hh      LDR      r0,[r5,#4]
        0x0000134e:    68c7        .h      LDR      r7,[r0,#0xc]
        0x00001350:    6868        hh      LDR      r0,[r5,#4]
        0x00001352:    6840        @h      LDR      r0,[r0,#4]
        0x00001354:    6068        h`      STR      r0,[r5,#4]
        0x00001356:    42b0        .B      CMP      r0,r6
        0x00001358:    d101        ..      BNE      0x135e ; prvListTaskWithinSingleList + 46
        0x0000135a:    6841        Ah      LDR      r1,[r0,#4]
        0x0000135c:    6069        i`      STR      r1,[r5,#4]
        0x0000135e:    6868        hh      LDR      r0,[r5,#4]
        0x00001360:    68c4        .h      LDR      r4,[r0,#0xc]
        0x00001362:    6b20         k      LDR      r0,[r4,#0x30]
        0x00001364:    2100        .!      MOVS     r1,#0
        0x00001366:    e002        ..      B        0x136e ; prvListTaskWithinSingleList + 62
        0x00001368:    1c49        I.      ADDS     r1,r1,#1
        0x0000136a:    b289        ..      UXTH     r1,r1
        0x0000136c:    1c40        @.      ADDS     r0,r0,#1
        0x0000136e:    7802        .x      LDRB     r2,[r0,#0]
        0x00001370:    2aa5        .*      CMP      r2,#0xa5
        0x00001372:    d0f9        ..      BEQ      0x1368 ; prvListTaskWithinSingleList + 56
        0x00001374:    0888        ..      LSRS     r0,r1,#2
        0x00001376:    6c21        !l      LDR      r1,[r4,#0x40]
        0x00001378:    6ae2        .j      LDR      r2,[r4,#0x2c]
        0x0000137a:    e9cd2000    ...     STRD     r2,r0,[sp,#0]
        0x0000137e:    485a        ZH      LDR      r0,[pc,#360] ; [0x14e8] = 0x20000140
        0x00001380:    9102        ..      STR      r1,[sp,#8]
        0x00001382:    4643        CF      MOV      r3,r8
        0x00001384:    f1040234    ..4.    ADD      r2,r4,#0x34
        0x00001388:    a15b        [.      ADR      r1,{pc}+0x170 ; 0x14f8
        0x0000138a:    3828        (8      SUBS     r0,r0,#0x28
        0x0000138c:    f001fefc    ....    BL       __0sprintf$5 ; 0x3188
        0x00001390:    4955        UI      LDR      r1,[pc,#340] ; [0x14e8] = 0x20000140
        0x00001392:    4648        HF      MOV      r0,r9
        0x00001394:    3928        (9      SUBS     r1,r1,#0x28
        0x00001396:    f001fe6b    ..k.    BL       strcat ; 0x3070
        0x0000139a:    42bc        .B      CMP      r4,r7
        0x0000139c:    d1d8        ..      BNE      0x1350 ; prvListTaskWithinSingleList + 32
        0x0000139e:    e8bd83fe    ....    POP      {r1-r9,pc}
    vTaskList
        0x000013a2:    e92d41f0    -..A    PUSH     {r4-r8,lr}
        0x000013a6:    4607        .F      MOV      r7,r0
        0x000013a8:    f7fffdfc    ....    BL       vTaskSuspendAll ; 0xfa4
        0x000013ac:    2000        .       MOVS     r0,#0
        0x000013ae:    7038        8p      STRB     r0,[r7,#0]
        0x000013b0:    a156        V.      ADR      r1,{pc}+0x15c ; 0x150c
        0x000013b2:    4638        8F      MOV      r0,r7
        0x000013b4:    f001fe5c    ..\.    BL       strcat ; 0x3070
        0x000013b8:    4d4a        JM      LDR      r5,[pc,#296] ; [0x14e4] = 0x20000084
        0x000013ba:    4e4b        KN      LDR      r6,[pc,#300] ; [0x14e8] = 0x20000140
        0x000013bc:    692c        ,i      LDR      r4,[r5,#0x10]
        0x000013be:    1c64        d.      ADDS     r4,r4,#1
        0x000013c0:    1e64        d.      SUBS     r4,r4,#1
        0x000013c2:    eb040084    ....    ADD      r0,r4,r4,LSL #2
        0x000013c6:    f8561020    V. .    LDR      r1,[r6,r0,LSL #2]
        0x000013ca:    b129        ).      CBZ      r1,0x13d8 ; vTaskList + 54
        0x000013cc:    eb060180    ....    ADD      r1,r6,r0,LSL #2
        0x000013d0:    2252        R"      MOVS     r2,#0x52
        0x000013d2:    4638        8F      MOV      r0,r7
        0x000013d4:    f7ffffac    ....    BL       prvListTaskWithinSingleList ; 0x1330
        0x000013d8:    2c00        .,      CMP      r4,#0
        0x000013da:    d1f1        ..      BNE      0x13c0 ; vTaskList + 30
        0x000013dc:    6b68        hk      LDR      r0,[r5,#0x34]
        0x000013de:    6800        .h      LDR      r0,[r0,#0]
        0x000013e0:    b120         .      CBZ      r0,0x13ec ; vTaskList + 74
        0x000013e2:    6b69        ik      LDR      r1,[r5,#0x34]
        0x000013e4:    2242        B"      MOVS     r2,#0x42
        0x000013e6:    4638        8F      MOV      r0,r7
        0x000013e8:    f7ffffa2    ....    BL       prvListTaskWithinSingleList ; 0x1330
        0x000013ec:    6ba8        .k      LDR      r0,[r5,#0x38]
        0x000013ee:    6800        .h      LDR      r0,[r0,#0]
        0x000013f0:    b120         .      CBZ      r0,0x13fc ; vTaskList + 90
        0x000013f2:    6ba9        .k      LDR      r1,[r5,#0x38]
        0x000013f4:    2242        B"      MOVS     r2,#0x42
        0x000013f6:    4638        8F      MOV      r0,r7
        0x000013f8:    f7ffff9a    ....    BL       prvListTaskWithinSingleList ; 0x1330
        0x000013fc:    483a        :H      LDR      r0,[pc,#232] ; [0x14e8] = 0x20000140
        0x000013fe:    30a0        .0      ADDS     r0,r0,#0xa0
        0x00001400:    6800        .h      LDR      r0,[r0,#0]
        0x00001402:    b128        (.      CBZ      r0,0x1410 ; vTaskList + 110
        0x00001404:    4938        8I      LDR      r1,[pc,#224] ; [0x14e8] = 0x20000140
        0x00001406:    2244        D"      MOVS     r2,#0x44
        0x00001408:    31a0        .1      ADDS     r1,r1,#0xa0
        0x0000140a:    4638        8F      MOV      r0,r7
        0x0000140c:    f7ffff90    ....    BL       prvListTaskWithinSingleList ; 0x1330
        0x00001410:    4835        5H      LDR      r0,[pc,#212] ; [0x14e8] = 0x20000140
        0x00001412:    30b4        .0      ADDS     r0,r0,#0xb4
        0x00001414:    6800        .h      LDR      r0,[r0,#0]
        0x00001416:    b128        (.      CBZ      r0,0x1424 ; vTaskList + 130
        0x00001418:    4933        3I      LDR      r1,[pc,#204] ; [0x14e8] = 0x20000140
        0x0000141a:    2253        S"      MOVS     r2,#0x53
        0x0000141c:    31b4        .1      ADDS     r1,r1,#0xb4
        0x0000141e:    4638        8F      MOV      r0,r7
        0x00001420:    f7ffff86    ....    BL       prvListTaskWithinSingleList ; 0x1330
        0x00001424:    e8bd41f0    ...A    POP      {r4-r8,lr}
        0x00001428:    e54e        N.      B        xTaskResumeAll ; 0xec8
    vTaskPlaceOnEventList
        0x0000142a:    b570        p.      PUSH     {r4-r6,lr}
        0x0000142c:    460d        .F      MOV      r5,r1
        0x0000142e:    b178        x.      CBZ      r0,0x1450 ; vTaskPlaceOnEventList + 38
        0x00001430:    4c2c        ,L      LDR      r4,[pc,#176] ; [0x14e4] = 0x20000084
        0x00001432:    6821        !h      LDR      r1,[r4,#0]
        0x00001434:    3118        .1      ADDS     r1,r1,#0x18
        0x00001436:    f000fadf    ....    BL       vListInsert ; 0x19f8
        0x0000143a:    6820         h      LDR      r0,[r4,#0]
        0x0000143c:    1d00        ..      ADDS     r0,r0,#4
        0x0000143e:    f000faf3    ....    BL       uxListRemove ; 0x1a28
        0x00001442:    1c68        h.      ADDS     r0,r5,#1
        0x00001444:    d007        ..      BEQ      0x1456 ; vTaskPlaceOnEventList + 44
        0x00001446:    68e0        .h      LDR      r0,[r4,#0xc]
        0x00001448:    4428        (D      ADD      r0,r0,r5
        0x0000144a:    e8bd4070    ..p@    POP      {r4-r6,lr}
        0x0000144e:    e591        ..      B        prvAddCurrentTaskToDelayedList ; 0xf74
        0x00001450:    f7fefecc    ....    BL       ulPortSetInterruptMask ; 0x1ec
        0x00001454:    e7fe        ..      B        0x1454 ; vTaskPlaceOnEventList + 42
        0x00001456:    6821        !h      LDR      r1,[r4,#0]
        0x00001458:    4823        #H      LDR      r0,[pc,#140] ; [0x14e8] = 0x20000140
        0x0000145a:    e8bd4070    ..p@    POP      {r4-r6,lr}
        0x0000145e:    30b4        .0      ADDS     r0,r0,#0xb4
        0x00001460:    1d09        ..      ADDS     r1,r1,#4
        0x00001462:    f000babb    ....    B.W      vListInsertEnd ; 0x19dc
    vTaskPlaceOnEventListRestricted
        0x00001466:    b570        p.      PUSH     {r4-r6,lr}
        0x00001468:    460d        .F      MOV      r5,r1
        0x0000146a:    b168        h.      CBZ      r0,0x1488 ; vTaskPlaceOnEventListRestricted + 34
        0x0000146c:    4c1d        .L      LDR      r4,[pc,#116] ; [0x14e4] = 0x20000084
        0x0000146e:    6821        !h      LDR      r1,[r4,#0]
        0x00001470:    3118        .1      ADDS     r1,r1,#0x18
        0x00001472:    f000fab3    ....    BL       vListInsertEnd ; 0x19dc
        0x00001476:    6820         h      LDR      r0,[r4,#0]
        0x00001478:    1d00        ..      ADDS     r0,r0,#4
        0x0000147a:    f000fad5    ....    BL       uxListRemove ; 0x1a28
        0x0000147e:    68e0        .h      LDR      r0,[r4,#0xc]
        0x00001480:    4428        (D      ADD      r0,r0,r5
        0x00001482:    e8bd4070    ..p@    POP      {r4-r6,lr}
        0x00001486:    e575        u.      B        prvAddCurrentTaskToDelayedList ; 0xf74
        0x00001488:    f7fefeb0    ....    BL       ulPortSetInterruptMask ; 0x1ec
        0x0000148c:    e7fe        ..      B        0x148c ; vTaskPlaceOnEventListRestricted + 38
    xTaskRemoveFromEventList
        0x0000148e:    b570        p.      PUSH     {r4-r6,lr}
        0x00001490:    68c0        .h      LDR      r0,[r0,#0xc]
        0x00001492:    68c4        .h      LDR      r4,[r0,#0xc]
        0x00001494:    b15c        \.      CBZ      r4,0x14ae ; xTaskRemoveFromEventList + 32
        0x00001496:    f1040018    ....    ADD      r0,r4,#0x18
        0x0000149a:    4606        .F      MOV      r6,r0
        0x0000149c:    f000fac4    ....    BL       uxListRemove ; 0x1a28
        0x000014a0:    4d10        .M      LDR      r5,[pc,#64] ; [0x14e4] = 0x20000084
        0x000014a2:    69e8        .i      LDR      r0,[r5,#0x1c]
        0x000014a4:    b130        0.      CBZ      r0,0x14b4 ; xTaskRemoveFromEventList + 38
        0x000014a6:    4810        .H      LDR      r0,[pc,#64] ; [0x14e8] = 0x20000140
        0x000014a8:    4631        1F      MOV      r1,r6
        0x000014aa:    308c        .0      ADDS     r0,r0,#0x8c
        0x000014ac:    e010        ..      B        0x14d0 ; xTaskRemoveFromEventList + 66
        0x000014ae:    f7fefe9d    ....    BL       ulPortSetInterruptMask ; 0x1ec
        0x000014b2:    e7fe        ..      B        0x14b2 ; xTaskRemoveFromEventList + 36
        0x000014b4:    1d20         .      ADDS     r0,r4,#4
        0x000014b6:    f000fab7    ....    BL       uxListRemove ; 0x1a28
        0x000014ba:    6ae0        .j      LDR      r0,[r4,#0x2c]
        0x000014bc:    6969        ii      LDR      r1,[r5,#0x14]
        0x000014be:    4288        .B      CMP      r0,r1
        0x000014c0:    d900        ..      BLS      0x14c4 ; xTaskRemoveFromEventList + 54
        0x000014c2:    6168        ha      STR      r0,[r5,#0x14]
        0x000014c4:    4908        .I      LDR      r1,[pc,#32] ; [0x14e8] = 0x20000140
        0x000014c6:    eb000080    ....    ADD      r0,r0,r0,LSL #2
        0x000014ca:    eb010080    ....    ADD      r0,r1,r0,LSL #2
        0x000014ce:    1d21        !.      ADDS     r1,r4,#4
        0x000014d0:    f000fa84    ....    BL       vListInsertEnd ; 0x19dc
        0x000014d4:    6ae0        .j      LDR      r0,[r4,#0x2c]
        0x000014d6:    6829        )h      LDR      r1,[r5,#0]
        0x000014d8:    6ac9        .j      LDR      r1,[r1,#0x2c]
        0x000014da:    4288        .B      CMP      r0,r1
        0x000014dc:    d318        ..      BCC      0x1510 ; xTaskRemoveFromEventList + 130
        0x000014de:    2001        .       MOVS     r0,#1
        0x000014e0:    bd70        p.      POP      {r4-r6,pc}
    $d
        0x000014e2:    0000        ..      DCW    0
        0x000014e4:    20000084    ...     DCD    536871044
        0x000014e8:    20000140    @..     DCD    536871232
        0x000014ec:    454c4449    IDLE    DCD    1162626121
        0x000014f0:    00000000    ....    DCD    0
        0x000014f4:    00001299    ....    DCD    4761
        0x000014f8:    09097325    %s..    DCD    151614245
        0x000014fc:    25096325    %c.%    DCD    621372197
        0x00001500:    75250975    u.%u    DCD    1965361525
        0x00001504:    0d752509    .%u.    DCD    225781001
        0x00001508:    0000000a    ....    DCD    10
        0x0000150c:    00000a0d    ....    DCD    2573
    $t
        0x00001510:    2000        .       MOVS     r0,#0
        0x00001512:    e7e5        ..      B        0x14e0 ; xTaskRemoveFromEventList + 82
    vTaskSetTimeOutState
        0x00001514:    b510        ..      PUSH     {r4,lr}
        0x00001516:    b128        (.      CBZ      r0,0x1524 ; vTaskSetTimeOutState + 16
        0x00001518:    4962        bI      LDR      r1,[pc,#392] ; [0x16a4] = 0x20000084
        0x0000151a:    6a8a        .j      LDR      r2,[r1,#0x28]
        0x0000151c:    6002        .`      STR      r2,[r0,#0]
        0x0000151e:    68c9        .h      LDR      r1,[r1,#0xc]
        0x00001520:    6041        A`      STR      r1,[r0,#4]
        0x00001522:    bd10        ..      POP      {r4,pc}
        0x00001524:    f7fefe62    ..b.    BL       ulPortSetInterruptMask ; 0x1ec
        0x00001528:    e7fe        ..      B        0x1528 ; vTaskSetTimeOutState + 20
    xTaskCheckForTimeOut
        0x0000152a:    b570        p.      PUSH     {r4-r6,lr}
        0x0000152c:    460d        .F      MOV      r5,r1
        0x0000152e:    0004        ..      MOVS     r4,r0
        0x00001530:    d01c        ..      BEQ      0x156c ; xTaskCheckForTimeOut + 66
        0x00001532:    b1f5        ..      CBZ      r5,0x1572 ; xTaskCheckForTimeOut + 72
        0x00001534:    f000fe6d    ..m.    BL       vPortEnterCritical ; 0x2212
        0x00001538:    6828        (h      LDR      r0,[r5,#0]
        0x0000153a:    1c41        A.      ADDS     r1,r0,#1
        0x0000153c:    d014        ..      BEQ      0x1568 ; xTaskCheckForTimeOut + 62
        0x0000153e:    4a59        YJ      LDR      r2,[pc,#356] ; [0x16a4] = 0x20000084
        0x00001540:    6821        !h      LDR      r1,[r4,#0]
        0x00001542:    6a93        .j      LDR      r3,[r2,#0x28]
        0x00001544:    4299        .B      CMP      r1,r3
        0x00001546:    d003        ..      BEQ      0x1550 ; xTaskCheckForTimeOut + 38
        0x00001548:    6861        ah      LDR      r1,[r4,#4]
        0x0000154a:    68d3        .h      LDR      r3,[r2,#0xc]
        0x0000154c:    4299        .B      CMP      r1,r3
        0x0000154e:    d913        ..      BLS      0x1578 ; xTaskCheckForTimeOut + 78
        0x00001550:    6861        ah      LDR      r1,[r4,#4]
        0x00001552:    68d3        .h      LDR      r3,[r2,#0xc]
        0x00001554:    1a5b        [.      SUBS     r3,r3,r1
        0x00001556:    4283        .B      CMP      r3,r0
        0x00001558:    d20e        ..      BCS      0x1578 ; xTaskCheckForTimeOut + 78
        0x0000155a:    68d2        .h      LDR      r2,[r2,#0xc]
        0x0000155c:    1a51        Q.      SUBS     r1,r2,r1
        0x0000155e:    1a40        @.      SUBS     r0,r0,r1
        0x00001560:    6028        (`      STR      r0,[r5,#0]
        0x00001562:    4620         F      MOV      r0,r4
        0x00001564:    f7ffffd6    ....    BL       vTaskSetTimeOutState ; 0x1514
        0x00001568:    2400        .$      MOVS     r4,#0
        0x0000156a:    e006        ..      B        0x157a ; xTaskCheckForTimeOut + 80
        0x0000156c:    f7fefe3e    ..>.    BL       ulPortSetInterruptMask ; 0x1ec
        0x00001570:    e7fe        ..      B        0x1570 ; xTaskCheckForTimeOut + 70
        0x00001572:    f7fefe3b    ..;.    BL       ulPortSetInterruptMask ; 0x1ec
        0x00001576:    e7fe        ..      B        0x1576 ; xTaskCheckForTimeOut + 76
        0x00001578:    2401        .$      MOVS     r4,#1
        0x0000157a:    f000fe50    ..P.    BL       vPortExitCritical ; 0x221e
        0x0000157e:    4620         F      MOV      r0,r4
        0x00001580:    e7ae        ..      B        0x14e0 ; xTaskRemoveFromEventList + 82
    vTaskMissedYield
        0x00001582:    4948        HI      LDR      r1,[pc,#288] ; [0x16a4] = 0x20000084
        0x00001584:    2001        .       MOVS     r0,#1
        0x00001586:    6248        Hb      STR      r0,[r1,#0x24]
        0x00001588:    4770        pG      BX       lr
    uxTaskGetTaskNumber
        0x0000158a:    2800        .(      CMP      r0,#0
        0x0000158c:    d000        ..      BEQ      0x1590 ; uxTaskGetTaskNumber + 6
        0x0000158e:    6c40        @l      LDR      r0,[r0,#0x44]
        0x00001590:    4770        pG      BX       lr
    vTaskSetTaskNumber
        0x00001592:    2800        .(      CMP      r0,#0
        0x00001594:    d000        ..      BEQ      0x1598 ; vTaskSetTaskNumber + 6
        0x00001596:    6441        Ad      STR      r1,[r0,#0x44]
        0x00001598:    4770        pG      BX       lr
    xTaskGetCurrentTaskHandle
        0x0000159a:    4842        BH      LDR      r0,[pc,#264] ; [0x16a4] = 0x20000084
        0x0000159c:    6800        .h      LDR      r0,[r0,#0]
        0x0000159e:    4770        pG      BX       lr
    xTaskGetSchedulerState
        0x000015a0:    4840        @H      LDR      r0,[pc,#256] ; [0x16a4] = 0x20000084
        0x000015a2:    6981        .i      LDR      r1,[r0,#0x18]
        0x000015a4:    b119        ..      CBZ      r1,0x15ae ; xTaskGetSchedulerState + 14
        0x000015a6:    69c0        .i      LDR      r0,[r0,#0x1c]
        0x000015a8:    b118        ..      CBZ      r0,0x15b2 ; xTaskGetSchedulerState + 18
        0x000015aa:    2002        .       MOVS     r0,#2
        0x000015ac:    4770        pG      BX       lr
        0x000015ae:    2000        .       MOVS     r0,#0
        0x000015b0:    4770        pG      BX       lr
        0x000015b2:    2001        .       MOVS     r0,#1
        0x000015b4:    4770        pG      BX       lr
    vTaskPriorityInherit
        0x000015b6:    b570        p.      PUSH     {r4-r6,lr}
        0x000015b8:    0004        ..      MOVS     r4,r0
        0x000015ba:    d091        ..      BEQ      0x14e0 ; xTaskRemoveFromEventList + 82
        0x000015bc:    4d39        9M      LDR      r5,[pc,#228] ; [0x16a4] = 0x20000084
        0x000015be:    6ae0        .j      LDR      r0,[r4,#0x2c]
        0x000015c0:    6829        )h      LDR      r1,[r5,#0]
        0x000015c2:    6ac9        .j      LDR      r1,[r1,#0x2c]
        0x000015c4:    4288        .B      CMP      r0,r1
        0x000015c6:    d28b        ..      BCS      0x14e0 ; xTaskRemoveFromEventList + 82
        0x000015c8:    6828        (h      LDR      r0,[r5,#0]
        0x000015ca:    4e37        7N      LDR      r6,[pc,#220] ; [0x16a8] = 0x20000140
        0x000015cc:    6ac0        .j      LDR      r0,[r0,#0x2c]
        0x000015ce:    f1c00005    ....    RSB      r0,r0,#5
        0x000015d2:    61a0        .a      STR      r0,[r4,#0x18]
        0x000015d4:    6ae0        .j      LDR      r0,[r4,#0x2c]
        0x000015d6:    6961        ai      LDR      r1,[r4,#0x14]
        0x000015d8:    eb000080    ....    ADD      r0,r0,r0,LSL #2
        0x000015dc:    eb060080    ....    ADD      r0,r6,r0,LSL #2
        0x000015e0:    4281        .B      CMP      r1,r0
        0x000015e2:    d112        ..      BNE      0x160a ; vTaskPriorityInherit + 84
        0x000015e4:    1d20         .      ADDS     r0,r4,#4
        0x000015e6:    f000fa1f    ....    BL       uxListRemove ; 0x1a28
        0x000015ea:    6828        (h      LDR      r0,[r5,#0]
        0x000015ec:    6ac0        .j      LDR      r0,[r0,#0x2c]
        0x000015ee:    62e0        .b      STR      r0,[r4,#0x2c]
        0x000015f0:    6969        ii      LDR      r1,[r5,#0x14]
        0x000015f2:    4288        .B      CMP      r0,r1
        0x000015f4:    d900        ..      BLS      0x15f8 ; vTaskPriorityInherit + 66
        0x000015f6:    6168        ha      STR      r0,[r5,#0x14]
        0x000015f8:    eb000080    ....    ADD      r0,r0,r0,LSL #2
        0x000015fc:    eb060080    ....    ADD      r0,r6,r0,LSL #2
        0x00001600:    1d21        !.      ADDS     r1,r4,#4
        0x00001602:    e8bd4070    ..p@    POP      {r4-r6,lr}
        0x00001606:    f000b9e9    ....    B.W      vListInsertEnd ; 0x19dc
        0x0000160a:    6828        (h      LDR      r0,[r5,#0]
        0x0000160c:    6ac0        .j      LDR      r0,[r0,#0x2c]
        0x0000160e:    62e0        .b      STR      r0,[r4,#0x2c]
        0x00001610:    e766        f.      B        0x14e0 ; xTaskRemoveFromEventList + 82
    vTaskPriorityDisinherit
        0x00001612:    b510        ..      PUSH     {r4,lr}
        0x00001614:    0004        ..      MOVS     r4,r0
        0x00001616:    d01b        ..      BEQ      0x1650 ; vTaskPriorityDisinherit + 62
        0x00001618:    6ca1        .l      LDR      r1,[r4,#0x48]
        0x0000161a:    6ae0        .j      LDR      r0,[r4,#0x2c]
        0x0000161c:    4288        .B      CMP      r0,r1
        0x0000161e:    d017        ..      BEQ      0x1650 ; vTaskPriorityDisinherit + 62
        0x00001620:    1d20         .      ADDS     r0,r4,#4
        0x00001622:    f000fa01    ....    BL       uxListRemove ; 0x1a28
        0x00001626:    6ca0        .l      LDR      r0,[r4,#0x48]
        0x00001628:    62e0        .b      STR      r0,[r4,#0x2c]
        0x0000162a:    f1c00005    ....    RSB      r0,r0,#5
        0x0000162e:    491d        .I      LDR      r1,[pc,#116] ; [0x16a4] = 0x20000084
        0x00001630:    61a0        .a      STR      r0,[r4,#0x18]
        0x00001632:    6ae0        .j      LDR      r0,[r4,#0x2c]
        0x00001634:    694a        Ji      LDR      r2,[r1,#0x14]
        0x00001636:    4290        .B      CMP      r0,r2
        0x00001638:    d900        ..      BLS      0x163c ; vTaskPriorityDisinherit + 42
        0x0000163a:    6148        Ha      STR      r0,[r1,#0x14]
        0x0000163c:    491a        .I      LDR      r1,[pc,#104] ; [0x16a8] = 0x20000140
        0x0000163e:    eb000080    ....    ADD      r0,r0,r0,LSL #2
        0x00001642:    eb010080    ....    ADD      r0,r1,r0,LSL #2
        0x00001646:    1d21        !.      ADDS     r1,r4,#4
        0x00001648:    e8bd4010    ...@    POP      {r4,lr}
        0x0000164c:    f000b9c6    ....    B.W      vListInsertEnd ; 0x19dc
        0x00001650:    bd10        ..      POP      {r4,pc}
    prvCheckTasksWaitingTermination
        0x00001652:    b570        p.      PUSH     {r4-r6,lr}
        0x00001654:    4e14        .N      LDR      r6,[pc,#80] ; [0x16a8] = 0x20000140
        0x00001656:    4d13        .M      LDR      r5,[pc,#76] ; [0x16a4] = 0x20000084
        0x00001658:    36a0        .6      ADDS     r6,r6,#0xa0
        0x0000165a:    e01f        ..      B        0x169c ; prvCheckTasksWaitingTermination + 74
        0x0000165c:    f7fffca2    ....    BL       vTaskSuspendAll ; 0xfa4
        0x00001660:    6830        0h      LDR      r0,[r6,#0]
        0x00001662:    b120         .      CBZ      r0,0x166e ; prvCheckTasksWaitingTermination + 28
        0x00001664:    2400        .$      MOVS     r4,#0
        0x00001666:    f7fffc2f    ../.    BL       xTaskResumeAll ; 0xec8
        0x0000166a:    b9bc        ..      CBNZ     r4,0x169c ; prvCheckTasksWaitingTermination + 74
        0x0000166c:    e001        ..      B        0x1672 ; prvCheckTasksWaitingTermination + 32
        0x0000166e:    2401        .$      MOVS     r4,#1
        0x00001670:    e7f9        ..      B        0x1666 ; prvCheckTasksWaitingTermination + 20
        0x00001672:    f000fdce    ....    BL       vPortEnterCritical ; 0x2212
        0x00001676:    68f0        .h      LDR      r0,[r6,#0xc]
        0x00001678:    68c4        .h      LDR      r4,[r0,#0xc]
        0x0000167a:    1d20         .      ADDS     r0,r4,#4
        0x0000167c:    f000f9d4    ....    BL       uxListRemove ; 0x1a28
        0x00001680:    68a8        .h      LDR      r0,[r5,#8]
        0x00001682:    1e40        @.      SUBS     r0,r0,#1
        0x00001684:    60a8        .`      STR      r0,[r5,#8]
        0x00001686:    6868        hh      LDR      r0,[r5,#4]
        0x00001688:    1e40        @.      SUBS     r0,r0,#1
        0x0000168a:    6068        h`      STR      r0,[r5,#4]
        0x0000168c:    f000fdc7    ....    BL       vPortExitCritical ; 0x221e
        0x00001690:    6b20         k      LDR      r0,[r4,#0x30]
        0x00001692:    f000fe3c    ..<.    BL       vPortFree ; 0x230e
        0x00001696:    4620         F      MOV      r0,r4
        0x00001698:    f000fe39    ..9.    BL       vPortFree ; 0x230e
        0x0000169c:    6868        hh      LDR      r0,[r5,#4]
        0x0000169e:    2800        .(      CMP      r0,#0
        0x000016a0:    d1dc        ..      BNE      0x165c ; prvCheckTasksWaitingTermination + 10
        0x000016a2:    e71d        ..      B        0x14e0 ; xTaskRemoveFromEventList + 82
    $d
        0x000016a4:    20000084    ...     DCD    536871044
        0x000016a8:    20000140    @..     DCD    536871232
    $t
    .text
    prvInsertTimerInActiveList
        0x000016ac:    b570        p.      PUSH     {r4-r6,lr}
        0x000016ae:    2400        .$      MOVS     r4,#0
        0x000016b0:    6041        A`      STR      r1,[r0,#4]
        0x000016b2:    4dbe        .M      LDR      r5,[pc,#760] ; [0x19ac] = 0x200000c0
        0x000016b4:    6100        .a      STR      r0,[r0,#0x10]
        0x000016b6:    4291        .B      CMP      r1,r2
        0x000016b8:    d806        ..      BHI      0x16c8 ; prvInsertTimerInActiveList + 28
        0x000016ba:    1ad1        ..      SUBS     r1,r2,r3
        0x000016bc:    6982        .i      LDR      r2,[r0,#0x18]
        0x000016be:    4291        .B      CMP      r1,r2
        0x000016c0:    d206        ..      BCS      0x16d0 ; prvInsertTimerInActiveList + 36
        0x000016c2:    1d01        ..      ADDS     r1,r0,#4
        0x000016c4:    68e8        .h      LDR      r0,[r5,#0xc]
        0x000016c6:    e007        ..      B        0x16d8 ; prvInsertTimerInActiveList + 44
        0x000016c8:    429a        .B      CMP      r2,r3
        0x000016ca:    d203        ..      BCS      0x16d4 ; prvInsertTimerInActiveList + 40
        0x000016cc:    4299        .B      CMP      r1,r3
        0x000016ce:    d301        ..      BCC      0x16d4 ; prvInsertTimerInActiveList + 40
        0x000016d0:    2401        .$      MOVS     r4,#1
        0x000016d2:    e003        ..      B        0x16dc ; prvInsertTimerInActiveList + 48
        0x000016d4:    1d01        ..      ADDS     r1,r0,#4
        0x000016d6:    68a8        .h      LDR      r0,[r5,#8]
        0x000016d8:    f000f98e    ....    BL       vListInsert ; 0x19f8
        0x000016dc:    4620         F      MOV      r0,r4
        0x000016de:    bd70        p.      POP      {r4-r6,pc}
    xTimerGenericCommand
        0x000016e0:    b5fe        ..      PUSH     {r1-r7,lr}
        0x000016e2:    4db2        .M      LDR      r5,[pc,#712] ; [0x19ac] = 0x200000c0
        0x000016e4:    461f        .F      MOV      r7,r3
        0x000016e6:    4603        .F      MOV      r3,r0
        0x000016e8:    682c        ,h      LDR      r4,[r5,#0]
        0x000016ea:    2000        .       MOVS     r0,#0
        0x000016ec:    9e08        ..      LDR      r6,[sp,#0x20]
        0x000016ee:    2c00        .,      CMP      r4,#0
        0x000016f0:    d008        ..      BEQ      0x1704 ; xTimerGenericCommand + 36
        0x000016f2:    e88d000e    ....    STM      sp,{r1-r3}
        0x000016f6:    b137        7.      CBZ      r7,0x1706 ; xTimerGenericCommand + 38
        0x000016f8:    2300        .#      MOVS     r3,#0
        0x000016fa:    463a        :F      MOV      r2,r7
        0x000016fc:    4669        iF      MOV      r1,sp
        0x000016fe:    4620         F      MOV      r0,r4
        0x00001700:    f000fc1b    ....    BL       xQueueGenericSendFromISR ; 0x1f3a
        0x00001704:    bdfe        ..      POP      {r1-r7,pc}
        0x00001706:    f7ffff4b    ..K.    BL       xTaskGetSchedulerState ; 0x15a0
        0x0000170a:    2801        .(      CMP      r0,#1
        0x0000170c:    f04f0300    O...    MOV      r3,#0
        0x00001710:    d005        ..      BEQ      0x171e ; xTimerGenericCommand + 62
        0x00001712:    2200        ."      MOVS     r2,#0
        0x00001714:    4669        iF      MOV      r1,sp
        0x00001716:    6828        (h      LDR      r0,[r5,#0]
        0x00001718:    f000fa7d    ..}.    BL       xQueueGenericSend ; 0x1c16
        0x0000171c:    bdfe        ..      POP      {r1-r7,pc}
        0x0000171e:    4632        2F      MOV      r2,r6
        0x00001720:    e7f8        ..      B        0x1714 ; xTimerGenericCommand + 52
    prvSampleTimeNow
        0x00001722:    b570        p.      PUSH     {r4-r6,lr}
        0x00001724:    4605        .F      MOV      r5,r0
        0x00001726:    f7fffdee    ....    BL       xTaskGetTickCount ; 0x1306
        0x0000172a:    4ea0        .N      LDR      r6,[pc,#640] ; [0x19ac] = 0x200000c0
        0x0000172c:    4604        .F      MOV      r4,r0
        0x0000172e:    6870        ph      LDR      r0,[r6,#4]
        0x00001730:    4284        .B      CMP      r4,r0
        0x00001732:    d203        ..      BCS      0x173c ; prvSampleTimeNow + 26
        0x00001734:    f000f87a    ..z.    BL       prvSwitchTimerLists ; 0x182c
        0x00001738:    2001        .       MOVS     r0,#1
        0x0000173a:    e000        ..      B        0x173e ; prvSampleTimeNow + 28
        0x0000173c:    2000        .       MOVS     r0,#0
        0x0000173e:    6028        (`      STR      r0,[r5,#0]
        0x00001740:    4620         F      MOV      r0,r4
        0x00001742:    6074        t`      STR      r4,[r6,#4]
        0x00001744:    bd70        p.      POP      {r4-r6,pc}
    prvTimerTask
        0x00001746:    4c99        .L      LDR      r4,[pc,#612] ; [0x19ac] = 0x200000c0
        0x00001748:    68a0        .h      LDR      r0,[r4,#8]
        0x0000174a:    6801        .h      LDR      r1,[r0,#0]
        0x0000174c:    b139        9.      CBZ      r1,0x175e ; prvTimerTask + 24
        0x0000174e:    2100        .!      MOVS     r1,#0
        0x00001750:    b139        9.      CBZ      r1,0x1762 ; prvTimerTask + 28
        0x00001752:    2000        .       MOVS     r0,#0
        0x00001754:    f000f8e6    ....    BL       prvProcessTimerOrBlockTask ; 0x1924
        0x00001758:    f000f897    ....    BL       prvProcessReceivedCommands ; 0x188a
        0x0000175c:    e7f4        ..      B        0x1748 ; prvTimerTask + 2
        0x0000175e:    2101        .!      MOVS     r1,#1
        0x00001760:    e7f6        ..      B        0x1750 ; prvTimerTask + 10
        0x00001762:    68c0        .h      LDR      r0,[r0,#0xc]
        0x00001764:    6800        .h      LDR      r0,[r0,#0]
        0x00001766:    e7f5        ..      B        0x1754 ; prvTimerTask + 14
    prvCheckForValidListAndQueue
        0x00001768:    b510        ..      PUSH     {r4,lr}
        0x0000176a:    f000fd52    ..R.    BL       vPortEnterCritical ; 0x2212
        0x0000176e:    4c8f        .L      LDR      r4,[pc,#572] ; [0x19ac] = 0x200000c0
        0x00001770:    6820         h      LDR      r0,[r4,#0]
        0x00001772:    b980        ..      CBNZ     r0,0x1796 ; prvCheckForValidListAndQueue + 46
        0x00001774:    488e        .H      LDR      r0,[pc,#568] ; [0x19b0] = 0x20000208
        0x00001776:    f000f923    ..#.    BL       vListInitialise ; 0x19c0
        0x0000177a:    488d        .H      LDR      r0,[pc,#564] ; [0x19b0] = 0x20000208
        0x0000177c:    3014        .0      ADDS     r0,r0,#0x14
        0x0000177e:    f000f91f    ....    BL       vListInitialise ; 0x19c0
        0x00001782:    488b        .H      LDR      r0,[pc,#556] ; [0x19b0] = 0x20000208
        0x00001784:    60a0        .`      STR      r0,[r4,#8]
        0x00001786:    3014        .0      ADDS     r0,r0,#0x14
        0x00001788:    60e0        .`      STR      r0,[r4,#0xc]
        0x0000178a:    2200        ."      MOVS     r2,#0
        0x0000178c:    210c        .!      MOVS     r1,#0xc
        0x0000178e:    200a        .       MOVS     r0,#0xa
        0x00001790:    f000f993    ....    BL       xQueueGenericCreate ; 0x1aba
        0x00001794:    6020         `      STR      r0,[r4,#0]
        0x00001796:    e8bd4010    ...@    POP      {r4,lr}
        0x0000179a:    f000bd40    ..@.    B.W      vPortExitCritical ; 0x221e
    xTimerCreateTimerTask
        0x0000179e:    b51f        ..      PUSH     {r0-r4,lr}
        0x000017a0:    f7ffffe2    ....    BL       prvCheckForValidListAndQueue ; 0x1768
        0x000017a4:    4881        .H      LDR      r0,[pc,#516] ; [0x19ac] = 0x200000c0
        0x000017a6:    6800        .h      LDR      r0,[r0,#0]
        0x000017a8:    b168        h.      CBZ      r0,0x17c6 ; xTimerCreateTimerTask + 40
        0x000017aa:    2000        .       MOVS     r0,#0
        0x000017ac:    2102        .!      MOVS     r1,#2
        0x000017ae:    e9cd1000    ....    STRD     r1,r0,[sp,#0]
        0x000017b2:    9002        ..      STR      r0,[sp,#8]
        0x000017b4:    4603        .F      MOV      r3,r0
        0x000017b6:    9003        ..      STR      r0,[sp,#0xc]
        0x000017b8:    2264        d"      MOVS     r2,#0x64
        0x000017ba:    a17e        ~.      ADR      r1,{pc}+0x1fa ; 0x19b4
        0x000017bc:    487f        .H      LDR      r0,[pc,#508] ; [0x19bc] = 0x1747
        0x000017be:    f7fffa3f    ..?.    BL       xTaskGenericCreate ; 0xc40
        0x000017c2:    2800        .(      CMP      r0,#0
        0x000017c4:    d102        ..      BNE      0x17cc ; xTimerCreateTimerTask + 46
        0x000017c6:    f7fefd11    ....    BL       ulPortSetInterruptMask ; 0x1ec
        0x000017ca:    e7fe        ..      B        0x17ca ; xTimerCreateTimerTask + 44
        0x000017cc:    b004        ..      ADD      sp,sp,#0x10
        0x000017ce:    bd10        ..      POP      {r4,pc}
    xTimerCreate
        0x000017d0:    e92d47f0    -..G    PUSH     {r4-r10,lr}
        0x000017d4:    461e        .F      MOV      r6,r3
        0x000017d6:    f8dd9020    .. .    LDR      r9,[sp,#0x20]
        0x000017da:    4617        .F      MOV      r7,r2
        0x000017dc:    000d        ..      MOVS     r5,r1
        0x000017de:    4680        .F      MOV      r8,r0
        0x000017e0:    d012        ..      BEQ      0x1808 ; xTimerCreate + 56
        0x000017e2:    2028        (       MOVS     r0,#0x28
        0x000017e4:    f000fd3a    ..:.    BL       pvPortMalloc ; 0x225c
        0x000017e8:    0004        ..      MOVS     r4,r0
        0x000017ea:    d00a        ..      BEQ      0x1802 ; xTimerCreate + 50
        0x000017ec:    f7ffffbc    ....    BL       prvCheckForValidListAndQueue ; 0x1768
        0x000017f0:    f8c48000    ....    STR      r8,[r4,#0]
        0x000017f4:    e9c45706    ...W    STRD     r5,r7,[r4,#0x18]
        0x000017f8:    e9c46908    ...i    STRD     r6,r9,[r4,#0x20]
        0x000017fc:    1d20         .      ADDS     r0,r4,#4
        0x000017fe:    f000f8ea    ....    BL       vListInitialiseItem ; 0x19d6
        0x00001802:    4620         F      MOV      r0,r4
        0x00001804:    e8bd87f0    ....    POP      {r4-r10,pc}
        0x00001808:    f7fefcf0    ....    BL       ulPortSetInterruptMask ; 0x1ec
        0x0000180c:    e7fe        ..      B        0x180c ; xTimerCreate + 60
    xTimerIsTimerActive
        0x0000180e:    b510        ..      PUSH     {r4,lr}
        0x00001810:    4604        .F      MOV      r4,r0
        0x00001812:    f000fcfe    ....    BL       vPortEnterCritical ; 0x2212
        0x00001816:    6960        `i      LDR      r0,[r4,#0x14]
        0x00001818:    b108        ..      CBZ      r0,0x181e ; xTimerIsTimerActive + 16
        0x0000181a:    2401        .$      MOVS     r4,#1
        0x0000181c:    e000        ..      B        0x1820 ; xTimerIsTimerActive + 18
        0x0000181e:    2400        .$      MOVS     r4,#0
        0x00001820:    f000fcfd    ....    BL       vPortExitCritical ; 0x221e
        0x00001824:    4620         F      MOV      r0,r4
        0x00001826:    bd10        ..      POP      {r4,pc}
    pvTimerGetTimerID
        0x00001828:    6a00        .j      LDR      r0,[r0,#0x20]
        0x0000182a:    4770        pG      BX       lr
    prvSwitchTimerLists
        0x0000182c:    b5f8        ..      PUSH     {r3-r7,lr}
        0x0000182e:    4e5f        _N      LDR      r6,[pc,#380] ; [0x19ac] = 0x200000c0
        0x00001830:    e020         .      B        0x1874 ; prvSwitchTimerLists + 72
        0x00001832:    68c1        .h      LDR      r1,[r0,#0xc]
        0x00001834:    680d        .h      LDR      r5,[r1,#0]
        0x00001836:    68c0        .h      LDR      r0,[r0,#0xc]
        0x00001838:    68c4        .h      LDR      r4,[r0,#0xc]
        0x0000183a:    1d20         .      ADDS     r0,r4,#4
        0x0000183c:    f000f8f4    ....    BL       uxListRemove ; 0x1a28
        0x00001840:    6a61        aj      LDR      r1,[r4,#0x24]
        0x00001842:    4620         F      MOV      r0,r4
        0x00001844:    4788        .G      BLX      r1
        0x00001846:    69e0        .i      LDR      r0,[r4,#0x1c]
        0x00001848:    2801        .(      CMP      r0,#1
        0x0000184a:    d113        ..      BNE      0x1874 ; prvSwitchTimerLists + 72
        0x0000184c:    69a0        .i      LDR      r0,[r4,#0x18]
        0x0000184e:    4428        (D      ADD      r0,r0,r5
        0x00001850:    42a8        .B      CMP      r0,r5
        0x00001852:    d906        ..      BLS      0x1862 ; prvSwitchTimerLists + 54
        0x00001854:    6124        $a      STR      r4,[r4,#0x10]
        0x00001856:    6060        ``      STR      r0,[r4,#4]
        0x00001858:    1d21        !.      ADDS     r1,r4,#4
        0x0000185a:    68b0        .h      LDR      r0,[r6,#8]
        0x0000185c:    f000f8cc    ....    BL       vListInsert ; 0x19f8
        0x00001860:    e008        ..      B        0x1874 ; prvSwitchTimerLists + 72
        0x00001862:    2000        .       MOVS     r0,#0
        0x00001864:    4603        .F      MOV      r3,r0
        0x00001866:    4601        .F      MOV      r1,r0
        0x00001868:    9000        ..      STR      r0,[sp,#0]
        0x0000186a:    462a        *F      MOV      r2,r5
        0x0000186c:    4620         F      MOV      r0,r4
        0x0000186e:    f7ffff37    ..7.    BL       xTimerGenericCommand ; 0x16e0
        0x00001872:    b138        8.      CBZ      r0,0x1884 ; prvSwitchTimerLists + 88
        0x00001874:    68b0        .h      LDR      r0,[r6,#8]
        0x00001876:    6801        .h      LDR      r1,[r0,#0]
        0x00001878:    2900        .)      CMP      r1,#0
        0x0000187a:    d1da        ..      BNE      0x1832 ; prvSwitchTimerLists + 6
        0x0000187c:    68f1        .h      LDR      r1,[r6,#0xc]
        0x0000187e:    e9c61002    ....    STRD     r1,r0,[r6,#8]
        0x00001882:    bdf8        ..      POP      {r3-r7,pc}
        0x00001884:    f7fefcb2    ....    BL       ulPortSetInterruptMask ; 0x1ec
        0x00001888:    e7fe        ..      B        0x1888 ; prvSwitchTimerLists + 92
    prvProcessReceivedCommands
        0x0000188a:    b530        0.      PUSH     {r4,r5,lr}
        0x0000188c:    b085        ..      SUB      sp,sp,#0x14
        0x0000188e:    4d47        GM      LDR      r5,[pc,#284] ; [0x19ac] = 0x200000c0
        0x00001890:    e03e        >.      B        0x1910 ; prvProcessReceivedCommands + 134
        0x00001892:    9c03        ..      LDR      r4,[sp,#0xc]
        0x00001894:    6960        `i      LDR      r0,[r4,#0x14]
        0x00001896:    b110        ..      CBZ      r0,0x189e ; prvProcessReceivedCommands + 20
        0x00001898:    1d20         .      ADDS     r0,r4,#4
        0x0000189a:    f000f8c5    ....    BL       uxListRemove ; 0x1a28
        0x0000189e:    a804        ..      ADD      r0,sp,#0x10
        0x000018a0:    f7ffff3f    ..?.    BL       prvSampleTimeNow ; 0x1722
        0x000018a4:    4602        .F      MOV      r2,r0
        0x000018a6:    9801        ..      LDR      r0,[sp,#4]
        0x000018a8:    b130        0.      CBZ      r0,0x18b8 ; prvProcessReceivedCommands + 46
        0x000018aa:    2801        .(      CMP      r0,#1
        0x000018ac:    d030        0.      BEQ      0x1910 ; prvProcessReceivedCommands + 134
        0x000018ae:    2802        .(      CMP      r0,#2
        0x000018b0:    d01f        ..      BEQ      0x18f2 ; prvProcessReceivedCommands + 104
        0x000018b2:    2803        .(      CMP      r0,#3
        0x000018b4:    d12c        ,.      BNE      0x1910 ; prvProcessReceivedCommands + 134
        0x000018b6:    e028        (.      B        0x190a ; prvProcessReceivedCommands + 128
        0x000018b8:    9802        ..      LDR      r0,[sp,#8]
        0x000018ba:    69a1        .i      LDR      r1,[r4,#0x18]
        0x000018bc:    4603        .F      MOV      r3,r0
        0x000018be:    4401        .D      ADD      r1,r1,r0
        0x000018c0:    4620         F      MOV      r0,r4
        0x000018c2:    f7fffef3    ....    BL       prvInsertTimerInActiveList ; 0x16ac
        0x000018c6:    2801        .(      CMP      r0,#1
        0x000018c8:    d122        ".      BNE      0x1910 ; prvProcessReceivedCommands + 134
        0x000018ca:    6a61        aj      LDR      r1,[r4,#0x24]
        0x000018cc:    4620         F      MOV      r0,r4
        0x000018ce:    4788        .G      BLX      r1
        0x000018d0:    69e0        .i      LDR      r0,[r4,#0x1c]
        0x000018d2:    2801        .(      CMP      r0,#1
        0x000018d4:    d11c        ..      BNE      0x1910 ; prvProcessReceivedCommands + 134
        0x000018d6:    2000        .       MOVS     r0,#0
        0x000018d8:    9000        ..      STR      r0,[sp,#0]
        0x000018da:    9802        ..      LDR      r0,[sp,#8]
        0x000018dc:    69a1        .i      LDR      r1,[r4,#0x18]
        0x000018de:    2300        .#      MOVS     r3,#0
        0x000018e0:    1842        B.      ADDS     r2,r0,r1
        0x000018e2:    4619        .F      MOV      r1,r3
        0x000018e4:    4620         F      MOV      r0,r4
        0x000018e6:    f7fffefb    ....    BL       xTimerGenericCommand ; 0x16e0
        0x000018ea:    b988        ..      CBNZ     r0,0x1910 ; prvProcessReceivedCommands + 134
        0x000018ec:    f7fefc7e    ..~.    BL       ulPortSetInterruptMask ; 0x1ec
        0x000018f0:    e7fe        ..      B        0x18f0 ; prvProcessReceivedCommands + 102
        0x000018f2:    9802        ..      LDR      r0,[sp,#8]
        0x000018f4:    61a0        .a      STR      r0,[r4,#0x18]
        0x000018f6:    b128        (.      CBZ      r0,0x1904 ; prvProcessReceivedCommands + 122
        0x000018f8:    1881        ..      ADDS     r1,r0,r2
        0x000018fa:    4613        .F      MOV      r3,r2
        0x000018fc:    4620         F      MOV      r0,r4
        0x000018fe:    f7fffed5    ....    BL       prvInsertTimerInActiveList ; 0x16ac
        0x00001902:    e005        ..      B        0x1910 ; prvProcessReceivedCommands + 134
        0x00001904:    f7fefc72    ..r.    BL       ulPortSetInterruptMask ; 0x1ec
        0x00001908:    e7fe        ..      B        0x1908 ; prvProcessReceivedCommands + 126
        0x0000190a:    4620         F      MOV      r0,r4
        0x0000190c:    f000fcff    ....    BL       vPortFree ; 0x230e
        0x00001910:    2300        .#      MOVS     r3,#0
        0x00001912:    461a        .F      MOV      r2,r3
        0x00001914:    a901        ..      ADD      r1,sp,#4
        0x00001916:    6828        (h      LDR      r0,[r5,#0]
        0x00001918:    f000fa54    ..T.    BL       xQueueGenericReceive ; 0x1dc4
        0x0000191c:    2800        .(      CMP      r0,#0
        0x0000191e:    d1b8        ..      BNE      0x1892 ; prvProcessReceivedCommands + 8
        0x00001920:    b005        ..      ADD      sp,sp,#0x14
        0x00001922:    bd30        0.      POP      {r4,r5,pc}
    prvProcessTimerOrBlockTask
        0x00001924:    e92d41fc    -..A    PUSH     {r2-r8,lr}
        0x00001928:    460f        .F      MOV      r7,r1
        0x0000192a:    4605        .F      MOV      r5,r0
        0x0000192c:    f7fffb3a    ..:.    BL       vTaskSuspendAll ; 0xfa4
        0x00001930:    a801        ..      ADD      r0,sp,#4
        0x00001932:    f7fffef6    ....    BL       prvSampleTimeNow ; 0x1722
        0x00001936:    4604        .F      MOV      r4,r0
        0x00001938:    9801        ..      LDR      r0,[sp,#4]
        0x0000193a:    b118        ..      CBZ      r0,0x1944 ; prvProcessTimerOrBlockTask + 32
        0x0000193c:    f7fffac4    ....    BL       xTaskResumeAll ; 0xec8
        0x00001940:    e8bd81fc    ....    POP      {r2-r8,pc}
        0x00001944:    4e19        .N      LDR      r6,[pc,#100] ; [0x19ac] = 0x200000c0
        0x00001946:    bb37        7.      CBNZ     r7,0x1996 ; prvProcessTimerOrBlockTask + 114
        0x00001948:    42a5        .B      CMP      r5,r4
        0x0000194a:    d824        $.      BHI      0x1996 ; prvProcessTimerOrBlockTask + 114
        0x0000194c:    f7fffabc    ....    BL       xTaskResumeAll ; 0xec8
        0x00001950:    68b0        .h      LDR      r0,[r6,#8]
        0x00001952:    4627        'F      MOV      r7,r4
        0x00001954:    68c0        .h      LDR      r0,[r0,#0xc]
        0x00001956:    68c4        .h      LDR      r4,[r0,#0xc]
        0x00001958:    1d20         .      ADDS     r0,r4,#4
        0x0000195a:    f000f865    ..e.    BL       uxListRemove ; 0x1a28
        0x0000195e:    69e0        .i      LDR      r0,[r4,#0x1c]
        0x00001960:    2801        .(      CMP      r0,#1
        0x00001962:    d111        ..      BNE      0x1988 ; prvProcessTimerOrBlockTask + 100
        0x00001964:    69a0        .i      LDR      r0,[r4,#0x18]
        0x00001966:    462b        +F      MOV      r3,r5
        0x00001968:    1941        A.      ADDS     r1,r0,r5
        0x0000196a:    463a        :F      MOV      r2,r7
        0x0000196c:    4620         F      MOV      r0,r4
        0x0000196e:    f7fffe9d    ....    BL       prvInsertTimerInActiveList ; 0x16ac
        0x00001972:    2801        .(      CMP      r0,#1
        0x00001974:    d108        ..      BNE      0x1988 ; prvProcessTimerOrBlockTask + 100
        0x00001976:    2000        .       MOVS     r0,#0
        0x00001978:    4603        .F      MOV      r3,r0
        0x0000197a:    4601        .F      MOV      r1,r0
        0x0000197c:    9000        ..      STR      r0,[sp,#0]
        0x0000197e:    462a        *F      MOV      r2,r5
        0x00001980:    4620         F      MOV      r0,r4
        0x00001982:    f7fffead    ....    BL       xTimerGenericCommand ; 0x16e0
        0x00001986:    b118        ..      CBZ      r0,0x1990 ; prvProcessTimerOrBlockTask + 108
        0x00001988:    6a61        aj      LDR      r1,[r4,#0x24]
        0x0000198a:    4620         F      MOV      r0,r4
        0x0000198c:    4788        .G      BLX      r1
        0x0000198e:    e7d7        ..      B        0x1940 ; prvProcessTimerOrBlockTask + 28
        0x00001990:    f7fefc2c    ..,.    BL       ulPortSetInterruptMask ; 0x1ec
        0x00001994:    e7fe        ..      B        0x1994 ; prvProcessTimerOrBlockTask + 112
        0x00001996:    1b29        ).      SUBS     r1,r5,r4
        0x00001998:    6830        0h      LDR      r0,[r6,#0]
        0x0000199a:    f000fba9    ....    BL       vQueueWaitForMessageRestricted ; 0x20f0
        0x0000199e:    f7fffa93    ....    BL       xTaskResumeAll ; 0xec8
        0x000019a2:    2800        .(      CMP      r0,#0
        0x000019a4:    d1cc        ..      BNE      0x1940 ; prvProcessTimerOrBlockTask + 28
        0x000019a6:    f000fc2e    ....    BL       vPortYieldFromISR ; 0x2206
        0x000019aa:    e7c9        ..      B        0x1940 ; prvProcessTimerOrBlockTask + 28
    $d
        0x000019ac:    200000c0    ...     DCD    536871104
        0x000019b0:    20000208    ...     DCD    536871432
        0x000019b4:    20726d54    Tmr     DCD    544370004
        0x000019b8:    00637653    Svc.    DCD    6518355
        0x000019bc:    00001747    G...    DCD    5959
    $t
    .text
    vListInitialise
        0x000019c0:    f1000108    ....    ADD      r1,r0,#8
        0x000019c4:    f04f32ff    O..2    MOV      r2,#0xffffffff
        0x000019c8:    e9c01201    ....    STRD     r1,r2,[r0,#4]
        0x000019cc:    60c1        .`      STR      r1,[r0,#0xc]
        0x000019ce:    6101        .a      STR      r1,[r0,#0x10]
        0x000019d0:    2100        .!      MOVS     r1,#0
        0x000019d2:    6001        .`      STR      r1,[r0,#0]
        0x000019d4:    4770        pG      BX       lr
    vListInitialiseItem
        0x000019d6:    2100        .!      MOVS     r1,#0
        0x000019d8:    6101        .a      STR      r1,[r0,#0x10]
        0x000019da:    4770        pG      BX       lr
    vListInsertEnd
        0x000019dc:    6842        Bh      LDR      r2,[r0,#4]
        0x000019de:    6853        Sh      LDR      r3,[r2,#4]
        0x000019e0:    604b        K`      STR      r3,[r1,#4]
        0x000019e2:    6843        Ch      LDR      r3,[r0,#4]
        0x000019e4:    608b        .`      STR      r3,[r1,#8]
        0x000019e6:    6853        Sh      LDR      r3,[r2,#4]
        0x000019e8:    6099        .`      STR      r1,[r3,#8]
        0x000019ea:    6051        Q`      STR      r1,[r2,#4]
        0x000019ec:    6041        A`      STR      r1,[r0,#4]
        0x000019ee:    6108        .a      STR      r0,[r1,#0x10]
        0x000019f0:    6801        .h      LDR      r1,[r0,#0]
        0x000019f2:    1c49        I.      ADDS     r1,r1,#1
        0x000019f4:    6001        .`      STR      r1,[r0,#0]
        0x000019f6:    4770        pG      BX       lr
    vListInsert
        0x000019f8:    b510        ..      PUSH     {r4,lr}
        0x000019fa:    680b        .h      LDR      r3,[r1,#0]
        0x000019fc:    1c5a        Z.      ADDS     r2,r3,#1
        0x000019fe:    d002        ..      BEQ      0x1a06 ; vListInsert + 14
        0x00001a00:    f1000208    ....    ADD      r2,r0,#8
        0x00001a04:    e002        ..      B        0x1a0c ; vListInsert + 20
        0x00001a06:    6902        .i      LDR      r2,[r0,#0x10]
        0x00001a08:    e004        ..      B        0x1a14 ; vListInsert + 28
        0x00001a0a:    6852        Rh      LDR      r2,[r2,#4]
        0x00001a0c:    6854        Th      LDR      r4,[r2,#4]
        0x00001a0e:    6824        $h      LDR      r4,[r4,#0]
        0x00001a10:    429c        .B      CMP      r4,r3
        0x00001a12:    d9fa        ..      BLS      0x1a0a ; vListInsert + 18
        0x00001a14:    6853        Sh      LDR      r3,[r2,#4]
        0x00001a16:    604b        K`      STR      r3,[r1,#4]
        0x00001a18:    6099        .`      STR      r1,[r3,#8]
        0x00001a1a:    608a        .`      STR      r2,[r1,#8]
        0x00001a1c:    6051        Q`      STR      r1,[r2,#4]
        0x00001a1e:    6108        .a      STR      r0,[r1,#0x10]
        0x00001a20:    6801        .h      LDR      r1,[r0,#0]
        0x00001a22:    1c49        I.      ADDS     r1,r1,#1
        0x00001a24:    6001        .`      STR      r1,[r0,#0]
        0x00001a26:    bd10        ..      POP      {r4,pc}
    uxListRemove
        0x00001a28:    e9d01201    ....    LDRD     r1,r2,[r0,#4]
        0x00001a2c:    608a        .`      STR      r2,[r1,#8]
        0x00001a2e:    e9d01201    ....    LDRD     r1,r2,[r0,#4]
        0x00001a32:    6051        Q`      STR      r1,[r2,#4]
        0x00001a34:    6901        .i      LDR      r1,[r0,#0x10]
        0x00001a36:    684a        Jh      LDR      r2,[r1,#4]
        0x00001a38:    4282        .B      CMP      r2,r0
        0x00001a3a:    d101        ..      BNE      0x1a40 ; uxListRemove + 24
        0x00001a3c:    6882        .h      LDR      r2,[r0,#8]
        0x00001a3e:    604a        J`      STR      r2,[r1,#4]
        0x00001a40:    2200        ."      MOVS     r2,#0
        0x00001a42:    6102        .a      STR      r2,[r0,#0x10]
        0x00001a44:    6808        .h      LDR      r0,[r1,#0]
        0x00001a46:    1e40        @.      SUBS     r0,r0,#1
        0x00001a48:    6008        .`      STR      r0,[r1,#0]
        0x00001a4a:    6808        .h      LDR      r0,[r1,#0]
        0x00001a4c:    4770        pG      BX       lr
        0x00001a4e:    0000        ..      MOVS     r0,r0
    .text
    xQueueGenericReset
        0x00001a50:    b570        p.      PUSH     {r4-r6,lr}
        0x00001a52:    460d        .F      MOV      r5,r1
        0x00001a54:    0004        ..      MOVS     r4,r0
        0x00001a56:    d023        #.      BEQ      0x1aa0 ; xQueueGenericReset + 80
        0x00001a58:    f000fbdb    ....    BL       vPortEnterCritical ; 0x2212
        0x00001a5c:    e9d4200f    ...     LDRD     r2,r0,[r4,#0x3c]
        0x00001a60:    6821        !h      LDR      r1,[r4,#0]
        0x00001a62:    fb021100    ....    MLA      r1,r2,r0,r1
        0x00001a66:    6061        a`      STR      r1,[r4,#4]
        0x00001a68:    2100        .!      MOVS     r1,#0
        0x00001a6a:    63a1        .c      STR      r1,[r4,#0x38]
        0x00001a6c:    6821        !h      LDR      r1,[r4,#0]
        0x00001a6e:    60a1        .`      STR      r1,[r4,#8]
        0x00001a70:    460a        .F      MOV      r2,r1
        0x00001a72:    e9d4010f    ....    LDRD     r0,r1,[r4,#0x3c]
        0x00001a76:    1e40        @.      SUBS     r0,r0,#1
        0x00001a78:    fb002101    ...!    MLA      r1,r0,r1,r2
        0x00001a7c:    f04f30ff    O..0    MOV      r0,#0xffffffff
        0x00001a80:    60e1        .`      STR      r1,[r4,#0xc]
        0x00001a82:    6460        `d      STR      r0,[r4,#0x44]
        0x00001a84:    64a0        .d      STR      r0,[r4,#0x48]
        0x00001a86:    f1040010    ....    ADD      r0,r4,#0x10
        0x00001a8a:    b165        e.      CBZ      r5,0x1aa6 ; xQueueGenericReset + 86
        0x00001a8c:    f7ffff98    ....    BL       vListInitialise ; 0x19c0
        0x00001a90:    f1040024    ..$.    ADD      r0,r4,#0x24
        0x00001a94:    f7ffff94    ....    BL       vListInitialise ; 0x19c0
        0x00001a98:    f000fbc1    ....    BL       vPortExitCritical ; 0x221e
        0x00001a9c:    2001        .       MOVS     r0,#1
        0x00001a9e:    bd70        p.      POP      {r4-r6,pc}
        0x00001aa0:    f7fefba4    ....    BL       ulPortSetInterruptMask ; 0x1ec
        0x00001aa4:    e7fe        ..      B        0x1aa4 ; xQueueGenericReset + 84
        0x00001aa6:    6921        !i      LDR      r1,[r4,#0x10]
        0x00001aa8:    2900        .)      CMP      r1,#0
        0x00001aaa:    d0f5        ..      BEQ      0x1a98 ; xQueueGenericReset + 72
        0x00001aac:    f7fffcef    ....    BL       xTaskRemoveFromEventList ; 0x148e
        0x00001ab0:    2801        .(      CMP      r0,#1
        0x00001ab2:    d1f1        ..      BNE      0x1a98 ; xQueueGenericReset + 72
        0x00001ab4:    f000fba7    ....    BL       vPortYieldFromISR ; 0x2206
        0x00001ab8:    e7ee        ..      B        0x1a98 ; xQueueGenericReset + 72
    xQueueGenericCreate
        0x00001aba:    e92d41f0    -..A    PUSH     {r4-r8,lr}
        0x00001abe:    4617        .F      MOV      r7,r2
        0x00001ac0:    460e        .F      MOV      r6,r1
        0x00001ac2:    0005        ..      MOVS     r5,r0
        0x00001ac4:    d01b        ..      BEQ      0x1afe ; xQueueGenericCreate + 68
        0x00001ac6:    2054        T       MOVS     r0,#0x54
        0x00001ac8:    f000fbc8    ....    BL       pvPortMalloc ; 0x225c
        0x00001acc:    0004        ..      MOVS     r4,r0
        0x00001ace:    d016        ..      BEQ      0x1afe ; xQueueGenericCreate + 68
        0x00001ad0:    fb05f006    ....    MUL      r0,r5,r6
        0x00001ad4:    1c40        @.      ADDS     r0,r0,#1
        0x00001ad6:    f000fbc1    ....    BL       pvPortMalloc ; 0x225c
        0x00001ada:    6020         `      STR      r0,[r4,#0]
        0x00001adc:    b160        `.      CBZ      r0,0x1af8 ; xQueueGenericCreate + 62
        0x00001ade:    e9c4560f    ...V    STRD     r5,r6,[r4,#0x3c]
        0x00001ae2:    2101        .!      MOVS     r1,#1
        0x00001ae4:    4620         F      MOV      r0,r4
        0x00001ae6:    f7ffffb3    ....    BL       xQueueGenericReset ; 0x1a50
        0x00001aea:    f884704d    ..Mp    STRB     r7,[r4,#0x4d]
        0x00001aee:    2000        .       MOVS     r0,#0
        0x00001af0:    6520         e      STR      r0,[r4,#0x50]
        0x00001af2:    4620         F      MOV      r0,r4
        0x00001af4:    e8bd81f0    ....    POP      {r4-r8,pc}
        0x00001af8:    4620         F      MOV      r0,r4
        0x00001afa:    f000fc08    ....    BL       vPortFree ; 0x230e
        0x00001afe:    f7fefb75    ..u.    BL       ulPortSetInterruptMask ; 0x1ec
        0x00001b02:    e7fe        ..      B        0x1b02 ; xQueueGenericCreate + 72
    prvCopyDataToQueue
        0x00001b04:    b510        ..      PUSH     {r4,lr}
        0x00001b06:    4613        .F      MOV      r3,r2
        0x00001b08:    6c02        .l      LDR      r2,[r0,#0x40]
        0x00001b0a:    4604        .F      MOV      r4,r0
        0x00001b0c:    b18a        ..      CBZ      r2,0x1b32 ; prvCopyDataToQueue + 46
        0x00001b0e:    b1cb        ..      CBZ      r3,0x1b44 ; prvCopyDataToQueue + 64
        0x00001b10:    68e0        .h      LDR      r0,[r4,#0xc]
        0x00001b12:    f001fa89    ....    BL       __aeabi_memcpy ; 0x3028
        0x00001b16:    68e1        .h      LDR      r1,[r4,#0xc]
        0x00001b18:    6c20         l      LDR      r0,[r4,#0x40]
        0x00001b1a:    1a09        ..      SUBS     r1,r1,r0
        0x00001b1c:    60e1        .`      STR      r1,[r4,#0xc]
        0x00001b1e:    6822        "h      LDR      r2,[r4,#0]
        0x00001b20:    4291        .B      CMP      r1,r2
        0x00001b22:    d202        ..      BCS      0x1b2a ; prvCopyDataToQueue + 38
        0x00001b24:    6861        ah      LDR      r1,[r4,#4]
        0x00001b26:    1a08        ..      SUBS     r0,r1,r0
        0x00001b28:    60e0        .`      STR      r0,[r4,#0xc]
        0x00001b2a:    6ba0        .k      LDR      r0,[r4,#0x38]
        0x00001b2c:    1c40        @.      ADDS     r0,r0,#1
        0x00001b2e:    63a0        .c      STR      r0,[r4,#0x38]
        0x00001b30:    bd10        ..      POP      {r4,pc}
        0x00001b32:    6820         h      LDR      r0,[r4,#0]
        0x00001b34:    2800        .(      CMP      r0,#0
        0x00001b36:    d1f8        ..      BNE      0x1b2a ; prvCopyDataToQueue + 38
        0x00001b38:    6860        `h      LDR      r0,[r4,#4]
        0x00001b3a:    f7fffd6a    ..j.    BL       vTaskPriorityDisinherit ; 0x1612
        0x00001b3e:    2000        .       MOVS     r0,#0
        0x00001b40:    6060        ``      STR      r0,[r4,#4]
        0x00001b42:    e7f2        ..      B        0x1b2a ; prvCopyDataToQueue + 38
        0x00001b44:    68a0        .h      LDR      r0,[r4,#8]
        0x00001b46:    f001fa6f    ..o.    BL       __aeabi_memcpy ; 0x3028
        0x00001b4a:    6c21        !l      LDR      r1,[r4,#0x40]
        0x00001b4c:    68a0        .h      LDR      r0,[r4,#8]
        0x00001b4e:    4408        .D      ADD      r0,r0,r1
        0x00001b50:    60a0        .`      STR      r0,[r4,#8]
        0x00001b52:    6861        ah      LDR      r1,[r4,#4]
        0x00001b54:    4288        .B      CMP      r0,r1
        0x00001b56:    d3e8        ..      BCC      0x1b2a ; prvCopyDataToQueue + 38
        0x00001b58:    6820         h      LDR      r0,[r4,#0]
        0x00001b5a:    60a0        .`      STR      r0,[r4,#8]
        0x00001b5c:    e7e5        ..      B        0x1b2a ; prvCopyDataToQueue + 38
    prvNotifyQueueSetContainer
        0x00001b5e:    b573        s.      PUSH     {r0,r1,r4-r6,lr}
        0x00001b60:    2500        .%      MOVS     r5,#0
        0x00001b62:    9800        ..      LDR      r0,[sp,#0]
        0x00001b64:    6d04        .m      LDR      r4,[r0,#0x50]
        0x00001b66:    b134        4.      CBZ      r4,0x1b76 ; prvNotifyQueueSetContainer + 24
        0x00001b68:    6ba2        .k      LDR      r2,[r4,#0x38]
        0x00001b6a:    6be0        .k      LDR      r0,[r4,#0x3c]
        0x00001b6c:    4282        .B      CMP      r2,r0
        0x00001b6e:    d305        ..      BCC      0x1b7c ; prvNotifyQueueSetContainer + 30
        0x00001b70:    f7fefb3c    ..<.    BL       ulPortSetInterruptMask ; 0x1ec
        0x00001b74:    e7fe        ..      B        0x1b74 ; prvNotifyQueueSetContainer + 22
        0x00001b76:    f7fefb39    ..9.    BL       ulPortSetInterruptMask ; 0x1ec
        0x00001b7a:    e7fe        ..      B        0x1b7a ; prvNotifyQueueSetContainer + 28
        0x00001b7c:    6ba2        .k      LDR      r2,[r4,#0x38]
        0x00001b7e:    4282        .B      CMP      r2,r0
        0x00001b80:    d20c        ..      BCS      0x1b9c ; prvNotifyQueueSetContainer + 62
        0x00001b82:    460a        .F      MOV      r2,r1
        0x00001b84:    4669        iF      MOV      r1,sp
        0x00001b86:    4620         F      MOV      r0,r4
        0x00001b88:    f7ffffbc    ....    BL       prvCopyDataToQueue ; 0x1b04
        0x00001b8c:    6a60        `j      LDR      r0,[r4,#0x24]
        0x00001b8e:    b128        (.      CBZ      r0,0x1b9c ; prvNotifyQueueSetContainer + 62
        0x00001b90:    f1040024    ..$.    ADD      r0,r4,#0x24
        0x00001b94:    f7fffc7b    ..{.    BL       xTaskRemoveFromEventList ; 0x148e
        0x00001b98:    b100        ..      CBZ      r0,0x1b9c ; prvNotifyQueueSetContainer + 62
        0x00001b9a:    2501        .%      MOVS     r5,#1
        0x00001b9c:    4628        (F      MOV      r0,r5
        0x00001b9e:    bd7c        |.      POP      {r2-r6,pc}
    prvUnlockQueue
        0x00001ba0:    b570        p.      PUSH     {r4-r6,lr}
        0x00001ba2:    4604        .F      MOV      r4,r0
        0x00001ba4:    f000fb35    ..5.    BL       vPortEnterCritical ; 0x2212
        0x00001ba8:    f1040524    ..$.    ADD      r5,r4,#0x24
        0x00001bac:    e013        ..      B        0x1bd6 ; prvUnlockQueue + 54
        0x00001bae:    6d20         m      LDR      r0,[r4,#0x50]
        0x00001bb0:    b130        0.      CBZ      r0,0x1bc0 ; prvUnlockQueue + 32
        0x00001bb2:    2100        .!      MOVS     r1,#0
        0x00001bb4:    4620         F      MOV      r0,r4
        0x00001bb6:    f7ffffd2    ....    BL       prvNotifyQueueSetContainer ; 0x1b5e
        0x00001bba:    2801        .(      CMP      r0,#1
        0x00001bbc:    d006        ..      BEQ      0x1bcc ; prvUnlockQueue + 44
        0x00001bbe:    e007        ..      B        0x1bd0 ; prvUnlockQueue + 48
        0x00001bc0:    6a60        `j      LDR      r0,[r4,#0x24]
        0x00001bc2:    b158        X.      CBZ      r0,0x1bdc ; prvUnlockQueue + 60
        0x00001bc4:    4628        (F      MOV      r0,r5
        0x00001bc6:    f7fffc62    ..b.    BL       xTaskRemoveFromEventList ; 0x148e
        0x00001bca:    b108        ..      CBZ      r0,0x1bd0 ; prvUnlockQueue + 48
        0x00001bcc:    f7fffcd9    ....    BL       vTaskMissedYield ; 0x1582
        0x00001bd0:    6ca0        .l      LDR      r0,[r4,#0x48]
        0x00001bd2:    1e40        @.      SUBS     r0,r0,#1
        0x00001bd4:    64a0        .d      STR      r0,[r4,#0x48]
        0x00001bd6:    6ca0        .l      LDR      r0,[r4,#0x48]
        0x00001bd8:    2800        .(      CMP      r0,#0
        0x00001bda:    dce8        ..      BGT      0x1bae ; prvUnlockQueue + 14
        0x00001bdc:    f04f35ff    O..5    MOV      r5,#0xffffffff
        0x00001be0:    64a5        .d      STR      r5,[r4,#0x48]
        0x00001be2:    f000fb1c    ....    BL       vPortExitCritical ; 0x221e
        0x00001be6:    f000fb14    ....    BL       vPortEnterCritical ; 0x2212
        0x00001bea:    f1040610    ....    ADD      r6,r4,#0x10
        0x00001bee:    e00a        ..      B        0x1c06 ; prvUnlockQueue + 102
        0x00001bf0:    6920         i      LDR      r0,[r4,#0x10]
        0x00001bf2:    b158        X.      CBZ      r0,0x1c0c ; prvUnlockQueue + 108
        0x00001bf4:    4630        0F      MOV      r0,r6
        0x00001bf6:    f7fffc4a    ..J.    BL       xTaskRemoveFromEventList ; 0x148e
        0x00001bfa:    b108        ..      CBZ      r0,0x1c00 ; prvUnlockQueue + 96
        0x00001bfc:    f7fffcc1    ....    BL       vTaskMissedYield ; 0x1582
        0x00001c00:    6c60        `l      LDR      r0,[r4,#0x44]
        0x00001c02:    1e40        @.      SUBS     r0,r0,#1
        0x00001c04:    6460        `d      STR      r0,[r4,#0x44]
        0x00001c06:    6c60        `l      LDR      r0,[r4,#0x44]
        0x00001c08:    2800        .(      CMP      r0,#0
        0x00001c0a:    dcf1        ..      BGT      0x1bf0 ; prvUnlockQueue + 80
        0x00001c0c:    6465        ed      STR      r5,[r4,#0x44]
        0x00001c0e:    e8bd4070    ..p@    POP      {r4-r6,lr}
        0x00001c12:    f000bb04    ....    B.W      vPortExitCritical ; 0x221e
    xQueueGenericSend
        0x00001c16:    e92d43ff    -..C    PUSH     {r0-r9,lr}
        0x00001c1a:    b083        ..      SUB      sp,sp,#0xc
        0x00001c1c:    4699        .F      MOV      r9,r3
        0x00001c1e:    4688        .F      MOV      r8,r1
        0x00001c20:    0004        ..      MOVS     r4,r0
        0x00001c22:    f04f0600    O...    MOV      r6,#0
        0x00001c26:    d004        ..      BEQ      0x1c32 ; xQueueGenericSend + 28
        0x00001c28:    2700        .'      MOVS     r7,#0
        0x00001c2a:    f1b80f00    ....    CMP      r8,#0
        0x00001c2e:    d003        ..      BEQ      0x1c38 ; xQueueGenericSend + 34
        0x00001c30:    e007        ..      B        0x1c42 ; xQueueGenericSend + 44
        0x00001c32:    f7fefadb    ....    BL       ulPortSetInterruptMask ; 0x1ec
        0x00001c36:    e7fe        ..      B        0x1c36 ; xQueueGenericSend + 32
        0x00001c38:    6c20         l      LDR      r0,[r4,#0x40]
        0x00001c3a:    b110        ..      CBZ      r0,0x1c42 ; xQueueGenericSend + 44
        0x00001c3c:    f7fefad6    ....    BL       ulPortSetInterruptMask ; 0x1ec
        0x00001c40:    e7fe        ..      B        0x1c40 ; xQueueGenericSend + 42
        0x00001c42:    f000fae6    ....    BL       vPortEnterCritical ; 0x2212
        0x00001c46:    6ba0        .k      LDR      r0,[r4,#0x38]
        0x00001c48:    6be1        .k      LDR      r1,[r4,#0x3c]
        0x00001c4a:    4288        .B      CMP      r0,r1
        0x00001c4c:    d21b        ..      BCS      0x1c86 ; xQueueGenericSend + 112
        0x00001c4e:    464a        JF      MOV      r2,r9
        0x00001c50:    4641        AF      MOV      r1,r8
        0x00001c52:    4620         F      MOV      r0,r4
        0x00001c54:    f7ffff56    ..V.    BL       prvCopyDataToQueue ; 0x1b04
        0x00001c58:    6d20         m      LDR      r0,[r4,#0x50]
        0x00001c5a:    b120         .      CBZ      r0,0x1c66 ; xQueueGenericSend + 80
        0x00001c5c:    4649        IF      MOV      r1,r9
        0x00001c5e:    4620         F      MOV      r0,r4
        0x00001c60:    f7ffff7d    ..}.    BL       prvNotifyQueueSetContainer ; 0x1b5e
        0x00001c64:    e005        ..      B        0x1c72 ; xQueueGenericSend + 92
        0x00001c66:    6a60        `j      LDR      r0,[r4,#0x24]
        0x00001c68:    b138        8.      CBZ      r0,0x1c7a ; xQueueGenericSend + 100
        0x00001c6a:    f1040024    ..$.    ADD      r0,r4,#0x24
        0x00001c6e:    f7fffc0e    ....    BL       xTaskRemoveFromEventList ; 0x148e
        0x00001c72:    2801        .(      CMP      r0,#1
        0x00001c74:    d101        ..      BNE      0x1c7a ; xQueueGenericSend + 100
        0x00001c76:    f000fac6    ....    BL       vPortYieldFromISR ; 0x2206
        0x00001c7a:    f000fad0    ....    BL       vPortExitCritical ; 0x221e
        0x00001c7e:    2001        .       MOVS     r0,#1
        0x00001c80:    b007        ..      ADD      sp,sp,#0x1c
        0x00001c82:    e8bd83f0    ....    POP      {r4-r9,pc}
        0x00001c86:    9805        ..      LDR      r0,[sp,#0x14]
        0x00001c88:    b108        ..      CBZ      r0,0x1c8e ; xQueueGenericSend + 120
        0x00001c8a:    b11e        ..      CBZ      r6,0x1c94 ; xQueueGenericSend + 126
        0x00001c8c:    e006        ..      B        0x1c9c ; xQueueGenericSend + 134
        0x00001c8e:    f000fac6    ....    BL       vPortExitCritical ; 0x221e
        0x00001c92:    e01d        ..      B        0x1cd0 ; xQueueGenericSend + 186
        0x00001c94:    4668        hF      MOV      r0,sp
        0x00001c96:    f7fffc3d    ..=.    BL       vTaskSetTimeOutState ; 0x1514
        0x00001c9a:    2601        .&      MOVS     r6,#1
        0x00001c9c:    f000fabf    ....    BL       vPortExitCritical ; 0x221e
        0x00001ca0:    f7fff980    ....    BL       vTaskSuspendAll ; 0xfa4
        0x00001ca4:    f000fab5    ....    BL       vPortEnterCritical ; 0x2212
        0x00001ca8:    6c60        `l      LDR      r0,[r4,#0x44]
        0x00001caa:    1c40        @.      ADDS     r0,r0,#1
        0x00001cac:    d100        ..      BNE      0x1cb0 ; xQueueGenericSend + 154
        0x00001cae:    6467        gd      STR      r7,[r4,#0x44]
        0x00001cb0:    6ca0        .l      LDR      r0,[r4,#0x48]
        0x00001cb2:    1c40        @.      ADDS     r0,r0,#1
        0x00001cb4:    d100        ..      BNE      0x1cb8 ; xQueueGenericSend + 162
        0x00001cb6:    64a7        .d      STR      r7,[r4,#0x48]
        0x00001cb8:    f000fab1    ....    BL       vPortExitCritical ; 0x221e
        0x00001cbc:    a905        ..      ADD      r1,sp,#0x14
        0x00001cbe:    4668        hF      MOV      r0,sp
        0x00001cc0:    f7fffc33    ..3.    BL       xTaskCheckForTimeOut ; 0x152a
        0x00001cc4:    b130        0.      CBZ      r0,0x1cd4 ; xQueueGenericSend + 190
        0x00001cc6:    4620         F      MOV      r0,r4
        0x00001cc8:    f7ffff6a    ..j.    BL       prvUnlockQueue ; 0x1ba0
        0x00001ccc:    f7fff8fc    ....    BL       xTaskResumeAll ; 0xec8
        0x00001cd0:    2000        .       MOVS     r0,#0
        0x00001cd2:    e7d5        ..      B        0x1c80 ; xQueueGenericSend + 106
        0x00001cd4:    f000fa9d    ....    BL       vPortEnterCritical ; 0x2212
        0x00001cd8:    6ba0        .k      LDR      r0,[r4,#0x38]
        0x00001cda:    6be1        .k      LDR      r1,[r4,#0x3c]
        0x00001cdc:    4288        .B      CMP      r0,r1
        0x00001cde:    d101        ..      BNE      0x1ce4 ; xQueueGenericSend + 206
        0x00001ce0:    2501        .%      MOVS     r5,#1
        0x00001ce2:    e000        ..      B        0x1ce6 ; xQueueGenericSend + 208
        0x00001ce4:    2500        .%      MOVS     r5,#0
        0x00001ce6:    f000fa9a    ....    BL       vPortExitCritical ; 0x221e
        0x00001cea:    b175        u.      CBZ      r5,0x1d0a ; xQueueGenericSend + 244
        0x00001cec:    f1040010    ....    ADD      r0,r4,#0x10
        0x00001cf0:    9905        ..      LDR      r1,[sp,#0x14]
        0x00001cf2:    f7fffb9a    ....    BL       vTaskPlaceOnEventList ; 0x142a
        0x00001cf6:    4620         F      MOV      r0,r4
        0x00001cf8:    f7ffff52    ..R.    BL       prvUnlockQueue ; 0x1ba0
        0x00001cfc:    f7fff8e4    ....    BL       xTaskResumeAll ; 0xec8
        0x00001d00:    2800        .(      CMP      r0,#0
        0x00001d02:    d19e        ..      BNE      0x1c42 ; xQueueGenericSend + 44
        0x00001d04:    f000fa7f    ....    BL       vPortYieldFromISR ; 0x2206
        0x00001d08:    e79b        ..      B        0x1c42 ; xQueueGenericSend + 44
        0x00001d0a:    4620         F      MOV      r0,r4
        0x00001d0c:    f7ffff48    ..H.    BL       prvUnlockQueue ; 0x1ba0
        0x00001d10:    f7fff8da    ....    BL       xTaskResumeAll ; 0xec8
        0x00001d14:    e795        ..      B        0x1c42 ; xQueueGenericSend + 44
    xQueueCreateMutex
        0x00001d16:    b570        p.      PUSH     {r4-r6,lr}
        0x00001d18:    4605        .F      MOV      r5,r0
        0x00001d1a:    2054        T       MOVS     r0,#0x54
        0x00001d1c:    f000fa9e    ....    BL       pvPortMalloc ; 0x225c
        0x00001d20:    0004        ..      MOVS     r4,r0
        0x00001d22:    d01e        ..      BEQ      0x1d62 ; xQueueCreateMutex + 76
        0x00001d24:    2000        .       MOVS     r0,#0
        0x00001d26:    6060        ``      STR      r0,[r4,#4]
        0x00001d28:    6020         `      STR      r0,[r4,#0]
        0x00001d2a:    60a0        .`      STR      r0,[r4,#8]
        0x00001d2c:    60e0        .`      STR      r0,[r4,#0xc]
        0x00001d2e:    63a0        .c      STR      r0,[r4,#0x38]
        0x00001d30:    2101        .!      MOVS     r1,#1
        0x00001d32:    e9c4100f    ....    STRD     r1,r0,[r4,#0x3c]
        0x00001d36:    1e41        A.      SUBS     r1,r0,#1
        0x00001d38:    6461        ad      STR      r1,[r4,#0x44]
        0x00001d3a:    64a1        .d      STR      r1,[r4,#0x48]
        0x00001d3c:    f884504d    ..MP    STRB     r5,[r4,#0x4d]
        0x00001d40:    6520         e      STR      r0,[r4,#0x50]
        0x00001d42:    f1040010    ....    ADD      r0,r4,#0x10
        0x00001d46:    f7fffe3b    ..;.    BL       vListInitialise ; 0x19c0
        0x00001d4a:    f1040024    ..$.    ADD      r0,r4,#0x24
        0x00001d4e:    f7fffe37    ..7.    BL       vListInitialise ; 0x19c0
        0x00001d52:    2300        .#      MOVS     r3,#0
        0x00001d54:    461a        .F      MOV      r2,r3
        0x00001d56:    4619        .F      MOV      r1,r3
        0x00001d58:    4620         F      MOV      r0,r4
        0x00001d5a:    f7ffff5c    ..\.    BL       xQueueGenericSend ; 0x1c16
        0x00001d5e:    4620         F      MOV      r0,r4
        0x00001d60:    bd70        p.      POP      {r4-r6,pc}
        0x00001d62:    f7fefa43    ..C.    BL       ulPortSetInterruptMask ; 0x1ec
        0x00001d66:    e7fe        ..      B        0x1d66 ; xQueueCreateMutex + 80
    xQueueGiveMutexRecursive
        0x00001d68:    b510        ..      PUSH     {r4,lr}
        0x00001d6a:    0004        ..      MOVS     r4,r0
        0x00001d6c:    d009        ..      BEQ      0x1d82 ; xQueueGiveMutexRecursive + 26
        0x00001d6e:    f7fffc14    ....    BL       xTaskGetCurrentTaskHandle ; 0x159a
        0x00001d72:    6861        ah      LDR      r1,[r4,#4]
        0x00001d74:    4288        .B      CMP      r0,r1
        0x00001d76:    d10f        ..      BNE      0x1d98 ; xQueueGiveMutexRecursive + 48
        0x00001d78:    68e0        .h      LDR      r0,[r4,#0xc]
        0x00001d7a:    1e40        @.      SUBS     r0,r0,#1
        0x00001d7c:    60e0        .`      STR      r0,[r4,#0xc]
        0x00001d7e:    d003        ..      BEQ      0x1d88 ; xQueueGiveMutexRecursive + 32
        0x00001d80:    e008        ..      B        0x1d94 ; xQueueGiveMutexRecursive + 44
        0x00001d82:    f7fefa33    ..3.    BL       ulPortSetInterruptMask ; 0x1ec
        0x00001d86:    e7fe        ..      B        0x1d86 ; xQueueGiveMutexRecursive + 30
        0x00001d88:    2300        .#      MOVS     r3,#0
        0x00001d8a:    461a        .F      MOV      r2,r3
        0x00001d8c:    4619        .F      MOV      r1,r3
        0x00001d8e:    4620         F      MOV      r0,r4
        0x00001d90:    f7ffff41    ..A.    BL       xQueueGenericSend ; 0x1c16
        0x00001d94:    2001        .       MOVS     r0,#1
        0x00001d96:    bd10        ..      POP      {r4,pc}
        0x00001d98:    2000        .       MOVS     r0,#0
        0x00001d9a:    bd10        ..      POP      {r4,pc}
    prvCopyDataFromQueue
        0x00001d9c:    b430        0.      PUSH     {r4,r5}
        0x00001d9e:    6804        .h      LDR      r4,[r0,#0]
        0x00001da0:    460d        .F      MOV      r5,r1
        0x00001da2:    2c00        .,      CMP      r4,#0
        0x00001da4:    d00c        ..      BEQ      0x1dc0 ; prvCopyDataFromQueue + 36
        0x00001da6:    6c02        .l      LDR      r2,[r0,#0x40]
        0x00001da8:    68c1        .h      LDR      r1,[r0,#0xc]
        0x00001daa:    188b        ..      ADDS     r3,r1,r2
        0x00001dac:    60c3        .`      STR      r3,[r0,#0xc]
        0x00001dae:    6841        Ah      LDR      r1,[r0,#4]
        0x00001db0:    428b        .B      CMP      r3,r1
        0x00001db2:    d300        ..      BCC      0x1db6 ; prvCopyDataFromQueue + 26
        0x00001db4:    60c4        .`      STR      r4,[r0,#0xc]
        0x00001db6:    68c1        .h      LDR      r1,[r0,#0xc]
        0x00001db8:    4628        (F      MOV      r0,r5
        0x00001dba:    bc30        0.      POP      {r4,r5}
        0x00001dbc:    f001b934    ..4.    B.W      __aeabi_memcpy ; 0x3028
        0x00001dc0:    bc30        0.      POP      {r4,r5}
        0x00001dc2:    4770        pG      BX       lr
    xQueueGenericReceive
        0x00001dc4:    e92d43ff    -..C    PUSH     {r0-r9,lr}
        0x00001dc8:    b083        ..      SUB      sp,sp,#0xc
        0x00001dca:    4699        .F      MOV      r9,r3
        0x00001dcc:    4688        .F      MOV      r8,r1
        0x00001dce:    0004        ..      MOVS     r4,r0
        0x00001dd0:    f04f0600    O...    MOV      r6,#0
        0x00001dd4:    d004        ..      BEQ      0x1de0 ; xQueueGenericReceive + 28
        0x00001dd6:    2700        .'      MOVS     r7,#0
        0x00001dd8:    f1b80f00    ....    CMP      r8,#0
        0x00001ddc:    d003        ..      BEQ      0x1de6 ; xQueueGenericReceive + 34
        0x00001dde:    e007        ..      B        0x1df0 ; xQueueGenericReceive + 44
        0x00001de0:    f7fefa04    ....    BL       ulPortSetInterruptMask ; 0x1ec
        0x00001de4:    e7fe        ..      B        0x1de4 ; xQueueGenericReceive + 32
        0x00001de6:    6c20         l      LDR      r0,[r4,#0x40]
        0x00001de8:    b110        ..      CBZ      r0,0x1df0 ; xQueueGenericReceive + 44
        0x00001dea:    f7fef9ff    ....    BL       ulPortSetInterruptMask ; 0x1ec
        0x00001dee:    e7fe        ..      B        0x1dee ; xQueueGenericReceive + 42
        0x00001df0:    f000fa0f    ....    BL       vPortEnterCritical ; 0x2212
        0x00001df4:    6ba0        .k      LDR      r0,[r4,#0x38]
        0x00001df6:    b338        8.      CBZ      r0,0x1e48 ; xQueueGenericReceive + 132
        0x00001df8:    4641        AF      MOV      r1,r8
        0x00001dfa:    4620         F      MOV      r0,r4
        0x00001dfc:    68e5        .h      LDR      r5,[r4,#0xc]
        0x00001dfe:    f7ffffcd    ....    BL       prvCopyDataFromQueue ; 0x1d9c
        0x00001e02:    f1b90f00    ....    CMP      r9,#0
        0x00001e06:    d00d        ..      BEQ      0x1e24 ; xQueueGenericReceive + 96
        0x00001e08:    60e5        .`      STR      r5,[r4,#0xc]
        0x00001e0a:    6a60        `j      LDR      r0,[r4,#0x24]
        0x00001e0c:    b130        0.      CBZ      r0,0x1e1c ; xQueueGenericReceive + 88
        0x00001e0e:    f1040024    ..$.    ADD      r0,r4,#0x24
        0x00001e12:    f7fffb3c    ..<.    BL       xTaskRemoveFromEventList ; 0x148e
        0x00001e16:    b108        ..      CBZ      r0,0x1e1c ; xQueueGenericReceive + 88
        0x00001e18:    f000f9f5    ....    BL       vPortYieldFromISR ; 0x2206
        0x00001e1c:    f000f9ff    ....    BL       vPortExitCritical ; 0x221e
        0x00001e20:    2001        .       MOVS     r0,#1
        0x00001e22:    e72d        -.      B        0x1c80 ; xQueueGenericSend + 106
        0x00001e24:    6ba0        .k      LDR      r0,[r4,#0x38]
        0x00001e26:    1e40        @.      SUBS     r0,r0,#1
        0x00001e28:    63a0        .c      STR      r0,[r4,#0x38]
        0x00001e2a:    6820         h      LDR      r0,[r4,#0]
        0x00001e2c:    b910        ..      CBNZ     r0,0x1e34 ; xQueueGenericReceive + 112
        0x00001e2e:    f7fffbb4    ....    BL       xTaskGetCurrentTaskHandle ; 0x159a
        0x00001e32:    6060        ``      STR      r0,[r4,#4]
        0x00001e34:    6920         i      LDR      r0,[r4,#0x10]
        0x00001e36:    2800        .(      CMP      r0,#0
        0x00001e38:    d0f0        ..      BEQ      0x1e1c ; xQueueGenericReceive + 88
        0x00001e3a:    f1040010    ....    ADD      r0,r4,#0x10
        0x00001e3e:    f7fffb26    ..&.    BL       xTaskRemoveFromEventList ; 0x148e
        0x00001e42:    2801        .(      CMP      r0,#1
        0x00001e44:    d0e8        ..      BEQ      0x1e18 ; xQueueGenericReceive + 84
        0x00001e46:    e7e9        ..      B        0x1e1c ; xQueueGenericReceive + 88
        0x00001e48:    9805        ..      LDR      r0,[sp,#0x14]
        0x00001e4a:    b108        ..      CBZ      r0,0x1e50 ; xQueueGenericReceive + 140
        0x00001e4c:    b11e        ..      CBZ      r6,0x1e56 ; xQueueGenericReceive + 146
        0x00001e4e:    e006        ..      B        0x1e5e ; xQueueGenericReceive + 154
        0x00001e50:    f000f9e5    ....    BL       vPortExitCritical ; 0x221e
        0x00001e54:    e01d        ..      B        0x1e92 ; xQueueGenericReceive + 206
        0x00001e56:    4668        hF      MOV      r0,sp
        0x00001e58:    f7fffb5c    ..\.    BL       vTaskSetTimeOutState ; 0x1514
        0x00001e5c:    2601        .&      MOVS     r6,#1
        0x00001e5e:    f000f9de    ....    BL       vPortExitCritical ; 0x221e
        0x00001e62:    f7fff89f    ....    BL       vTaskSuspendAll ; 0xfa4
        0x00001e66:    f000f9d4    ....    BL       vPortEnterCritical ; 0x2212
        0x00001e6a:    6c60        `l      LDR      r0,[r4,#0x44]
        0x00001e6c:    1c40        @.      ADDS     r0,r0,#1
        0x00001e6e:    d100        ..      BNE      0x1e72 ; xQueueGenericReceive + 174
        0x00001e70:    6467        gd      STR      r7,[r4,#0x44]
        0x00001e72:    6ca0        .l      LDR      r0,[r4,#0x48]
        0x00001e74:    1c40        @.      ADDS     r0,r0,#1
        0x00001e76:    d100        ..      BNE      0x1e7a ; xQueueGenericReceive + 182
        0x00001e78:    64a7        .d      STR      r7,[r4,#0x48]
        0x00001e7a:    f000f9d0    ....    BL       vPortExitCritical ; 0x221e
        0x00001e7e:    a905        ..      ADD      r1,sp,#0x14
        0x00001e80:    4668        hF      MOV      r0,sp
        0x00001e82:    f7fffb52    ..R.    BL       xTaskCheckForTimeOut ; 0x152a
        0x00001e86:    b130        0.      CBZ      r0,0x1e96 ; xQueueGenericReceive + 210
        0x00001e88:    4620         F      MOV      r0,r4
        0x00001e8a:    f7fffe89    ....    BL       prvUnlockQueue ; 0x1ba0
        0x00001e8e:    f7fff81b    ....    BL       xTaskResumeAll ; 0xec8
        0x00001e92:    2000        .       MOVS     r0,#0
        0x00001e94:    e6f4        ..      B        0x1c80 ; xQueueGenericSend + 106
        0x00001e96:    f000f9bc    ....    BL       vPortEnterCritical ; 0x2212
        0x00001e9a:    6ba0        .k      LDR      r0,[r4,#0x38]
        0x00001e9c:    b130        0.      CBZ      r0,0x1eac ; xQueueGenericReceive + 232
        0x00001e9e:    2500        .%      MOVS     r5,#0
        0x00001ea0:    f000f9bd    ....    BL       vPortExitCritical ; 0x221e
        0x00001ea4:    b1d5        ..      CBZ      r5,0x1edc ; xQueueGenericReceive + 280
        0x00001ea6:    6820         h      LDR      r0,[r4,#0]
        0x00001ea8:    b110        ..      CBZ      r0,0x1eb0 ; xQueueGenericReceive + 236
        0x00001eaa:    e008        ..      B        0x1ebe ; xQueueGenericReceive + 250
        0x00001eac:    2501        .%      MOVS     r5,#1
        0x00001eae:    e7f7        ..      B        0x1ea0 ; xQueueGenericReceive + 220
        0x00001eb0:    f000f9af    ....    BL       vPortEnterCritical ; 0x2212
        0x00001eb4:    6860        `h      LDR      r0,[r4,#4]
        0x00001eb6:    f7fffb7e    ..~.    BL       vTaskPriorityInherit ; 0x15b6
        0x00001eba:    f000f9b0    ....    BL       vPortExitCritical ; 0x221e
        0x00001ebe:    f1040024    ..$.    ADD      r0,r4,#0x24
        0x00001ec2:    9905        ..      LDR      r1,[sp,#0x14]
        0x00001ec4:    f7fffab1    ....    BL       vTaskPlaceOnEventList ; 0x142a
        0x00001ec8:    4620         F      MOV      r0,r4
        0x00001eca:    f7fffe69    ..i.    BL       prvUnlockQueue ; 0x1ba0
        0x00001ece:    f7fefffb    ....    BL       xTaskResumeAll ; 0xec8
        0x00001ed2:    2800        .(      CMP      r0,#0
        0x00001ed4:    d18c        ..      BNE      0x1df0 ; xQueueGenericReceive + 44
        0x00001ed6:    f000f996    ....    BL       vPortYieldFromISR ; 0x2206
        0x00001eda:    e789        ..      B        0x1df0 ; xQueueGenericReceive + 44
        0x00001edc:    4620         F      MOV      r0,r4
        0x00001ede:    f7fffe5f    .._.    BL       prvUnlockQueue ; 0x1ba0
        0x00001ee2:    f7fefff1    ....    BL       xTaskResumeAll ; 0xec8
        0x00001ee6:    e783        ..      B        0x1df0 ; xQueueGenericReceive + 44
    xQueueTakeMutexRecursive
        0x00001ee8:    b570        p.      PUSH     {r4-r6,lr}
        0x00001eea:    460d        .F      MOV      r5,r1
        0x00001eec:    0004        ..      MOVS     r4,r0
        0x00001eee:    d009        ..      BEQ      0x1f04 ; xQueueTakeMutexRecursive + 28
        0x00001ef0:    f7fffb53    ..S.    BL       xTaskGetCurrentTaskHandle ; 0x159a
        0x00001ef4:    6861        ah      LDR      r1,[r4,#4]
        0x00001ef6:    4288        .B      CMP      r0,r1
        0x00001ef8:    d107        ..      BNE      0x1f0a ; xQueueTakeMutexRecursive + 34
        0x00001efa:    68e0        .h      LDR      r0,[r4,#0xc]
        0x00001efc:    1c40        @.      ADDS     r0,r0,#1
        0x00001efe:    60e0        .`      STR      r0,[r4,#0xc]
        0x00001f00:    2001        .       MOVS     r0,#1
        0x00001f02:    bd70        p.      POP      {r4-r6,pc}
        0x00001f04:    f7fef972    ..r.    BL       ulPortSetInterruptMask ; 0x1ec
        0x00001f08:    e7fe        ..      B        0x1f08 ; xQueueTakeMutexRecursive + 32
        0x00001f0a:    2300        .#      MOVS     r3,#0
        0x00001f0c:    462a        *F      MOV      r2,r5
        0x00001f0e:    4619        .F      MOV      r1,r3
        0x00001f10:    4620         F      MOV      r0,r4
        0x00001f12:    f7ffff57    ..W.    BL       xQueueGenericReceive ; 0x1dc4
        0x00001f16:    2801        .(      CMP      r0,#1
        0x00001f18:    d1f3        ..      BNE      0x1f02 ; xQueueTakeMutexRecursive + 26
        0x00001f1a:    68e1        .h      LDR      r1,[r4,#0xc]
        0x00001f1c:    1c49        I.      ADDS     r1,r1,#1
        0x00001f1e:    60e1        .`      STR      r1,[r4,#0xc]
        0x00001f20:    bd70        p.      POP      {r4-r6,pc}
    xQueueCreateCountingSemaphore
        0x00001f22:    b510        ..      PUSH     {r4,lr}
        0x00001f24:    460c        .F      MOV      r4,r1
        0x00001f26:    2202        ."      MOVS     r2,#2
        0x00001f28:    2100        .!      MOVS     r1,#0
        0x00001f2a:    f7fffdc6    ....    BL       xQueueGenericCreate ; 0x1aba
        0x00001f2e:    b108        ..      CBZ      r0,0x1f34 ; xQueueCreateCountingSemaphore + 18
        0x00001f30:    6384        .c      STR      r4,[r0,#0x38]
        0x00001f32:    bd10        ..      POP      {r4,pc}
        0x00001f34:    f7fef95a    ..Z.    BL       ulPortSetInterruptMask ; 0x1ec
        0x00001f38:    e7fe        ..      B        0x1f38 ; xQueueCreateCountingSemaphore + 22
    xQueueGenericSendFromISR
        0x00001f3a:    e92d41f0    -..A    PUSH     {r4-r8,lr}
        0x00001f3e:    4698        .F      MOV      r8,r3
        0x00001f40:    4615        .F      MOV      r5,r2
        0x00001f42:    460f        .F      MOV      r7,r1
        0x00001f44:    0004        ..      MOVS     r4,r0
        0x00001f46:    d001        ..      BEQ      0x1f4c ; xQueueGenericSendFromISR + 18
        0x00001f48:    b11f        ..      CBZ      r7,0x1f52 ; xQueueGenericSendFromISR + 24
        0x00001f4a:    e007        ..      B        0x1f5c ; xQueueGenericSendFromISR + 34
        0x00001f4c:    f7fef94e    ..N.    BL       ulPortSetInterruptMask ; 0x1ec
        0x00001f50:    e7fe        ..      B        0x1f50 ; xQueueGenericSendFromISR + 22
        0x00001f52:    6c20         l      LDR      r0,[r4,#0x40]
        0x00001f54:    b110        ..      CBZ      r0,0x1f5c ; xQueueGenericSendFromISR + 34
        0x00001f56:    f7fef949    ..I.    BL       ulPortSetInterruptMask ; 0x1ec
        0x00001f5a:    e7fe        ..      B        0x1f5a ; xQueueGenericSendFromISR + 32
        0x00001f5c:    f7fef946    ..F.    BL       ulPortSetInterruptMask ; 0x1ec
        0x00001f60:    4606        .F      MOV      r6,r0
        0x00001f62:    6ba0        .k      LDR      r0,[r4,#0x38]
        0x00001f64:    6be1        .k      LDR      r1,[r4,#0x3c]
        0x00001f66:    4288        .B      CMP      r0,r1
        0x00001f68:    d223        #.      BCS      0x1fb2 ; xQueueGenericSendFromISR + 120
        0x00001f6a:    4642        BF      MOV      r2,r8
        0x00001f6c:    4639        9F      MOV      r1,r7
        0x00001f6e:    4620         F      MOV      r0,r4
        0x00001f70:    f7fffdc8    ....    BL       prvCopyDataToQueue ; 0x1b04
        0x00001f74:    6ca0        .l      LDR      r0,[r4,#0x48]
        0x00001f76:    1c40        @.      ADDS     r0,r0,#1
        0x00001f78:    d004        ..      BEQ      0x1f84 ; xQueueGenericSendFromISR + 74
        0x00001f7a:    6ca0        .l      LDR      r0,[r4,#0x48]
        0x00001f7c:    1c40        @.      ADDS     r0,r0,#1
        0x00001f7e:    64a0        .d      STR      r0,[r4,#0x48]
        0x00001f80:    2401        .$      MOVS     r4,#1
        0x00001f82:    e017        ..      B        0x1fb4 ; xQueueGenericSendFromISR + 122
        0x00001f84:    6d20         m      LDR      r0,[r4,#0x50]
        0x00001f86:    2701        .'      MOVS     r7,#1
        0x00001f88:    b130        0.      CBZ      r0,0x1f98 ; xQueueGenericSendFromISR + 94
        0x00001f8a:    4641        AF      MOV      r1,r8
        0x00001f8c:    4620         F      MOV      r0,r4
        0x00001f8e:    f7fffde6    ....    BL       prvNotifyQueueSetContainer ; 0x1b5e
        0x00001f92:    2801        .(      CMP      r0,#1
        0x00001f94:    d009        ..      BEQ      0x1faa ; xQueueGenericSendFromISR + 112
        0x00001f96:    e7f3        ..      B        0x1f80 ; xQueueGenericSendFromISR + 70
        0x00001f98:    6a60        `j      LDR      r0,[r4,#0x24]
        0x00001f9a:    2800        .(      CMP      r0,#0
        0x00001f9c:    d0f0        ..      BEQ      0x1f80 ; xQueueGenericSendFromISR + 70
        0x00001f9e:    f1040024    ..$.    ADD      r0,r4,#0x24
        0x00001fa2:    f7fffa74    ..t.    BL       xTaskRemoveFromEventList ; 0x148e
        0x00001fa6:    2800        .(      CMP      r0,#0
        0x00001fa8:    d0ea        ..      BEQ      0x1f80 ; xQueueGenericSendFromISR + 70
        0x00001faa:    2d00        .-      CMP      r5,#0
        0x00001fac:    d0e8        ..      BEQ      0x1f80 ; xQueueGenericSendFromISR + 70
        0x00001fae:    602f        /`      STR      r7,[r5,#0]
        0x00001fb0:    e7e6        ..      B        0x1f80 ; xQueueGenericSendFromISR + 70
        0x00001fb2:    2400        .$      MOVS     r4,#0
        0x00001fb4:    4630        0F      MOV      r0,r6
        0x00001fb6:    f7fef920    .. .    BL       vPortClearInterruptMask ; 0x1fa
        0x00001fba:    4620         F      MOV      r0,r4
        0x00001fbc:    e59a        ..      B        0x1af4 ; xQueueGenericCreate + 58
    xQueueReceiveFromISR
        0x00001fbe:    e92d41f0    -..A    PUSH     {r4-r8,lr}
        0x00001fc2:    4615        .F      MOV      r5,r2
        0x00001fc4:    460f        .F      MOV      r7,r1
        0x00001fc6:    0004        ..      MOVS     r4,r0
        0x00001fc8:    d001        ..      BEQ      0x1fce ; xQueueReceiveFromISR + 16
        0x00001fca:    b11f        ..      CBZ      r7,0x1fd4 ; xQueueReceiveFromISR + 22
        0x00001fcc:    e007        ..      B        0x1fde ; xQueueReceiveFromISR + 32
        0x00001fce:    f7fef90d    ....    BL       ulPortSetInterruptMask ; 0x1ec
        0x00001fd2:    e7fe        ..      B        0x1fd2 ; xQueueReceiveFromISR + 20
        0x00001fd4:    6c20         l      LDR      r0,[r4,#0x40]
        0x00001fd6:    b110        ..      CBZ      r0,0x1fde ; xQueueReceiveFromISR + 32
        0x00001fd8:    f7fef908    ....    BL       ulPortSetInterruptMask ; 0x1ec
        0x00001fdc:    e7fe        ..      B        0x1fdc ; xQueueReceiveFromISR + 30
        0x00001fde:    f7fef905    ....    BL       ulPortSetInterruptMask ; 0x1ec
        0x00001fe2:    4606        .F      MOV      r6,r0
        0x00001fe4:    6ba0        .k      LDR      r0,[r4,#0x38]
        0x00001fe6:    b1e0        ..      CBZ      r0,0x2022 ; xQueueReceiveFromISR + 100
        0x00001fe8:    4639        9F      MOV      r1,r7
        0x00001fea:    4620         F      MOV      r0,r4
        0x00001fec:    f7fffed6    ....    BL       prvCopyDataFromQueue ; 0x1d9c
        0x00001ff0:    6ba0        .k      LDR      r0,[r4,#0x38]
        0x00001ff2:    1e40        @.      SUBS     r0,r0,#1
        0x00001ff4:    63a0        .c      STR      r0,[r4,#0x38]
        0x00001ff6:    6c60        `l      LDR      r0,[r4,#0x44]
        0x00001ff8:    1c40        @.      ADDS     r0,r0,#1
        0x00001ffa:    d004        ..      BEQ      0x2006 ; xQueueReceiveFromISR + 72
        0x00001ffc:    6c60        `l      LDR      r0,[r4,#0x44]
        0x00001ffe:    1c40        @.      ADDS     r0,r0,#1
        0x00002000:    6460        `d      STR      r0,[r4,#0x44]
        0x00002002:    2401        .$      MOVS     r4,#1
        0x00002004:    e00e        ..      B        0x2024 ; xQueueReceiveFromISR + 102
        0x00002006:    6920         i      LDR      r0,[r4,#0x10]
        0x00002008:    2800        .(      CMP      r0,#0
        0x0000200a:    d0fa        ..      BEQ      0x2002 ; xQueueReceiveFromISR + 68
        0x0000200c:    f1040010    ....    ADD      r0,r4,#0x10
        0x00002010:    f7fffa3d    ..=.    BL       xTaskRemoveFromEventList ; 0x148e
        0x00002014:    2800        .(      CMP      r0,#0
        0x00002016:    d0f4        ..      BEQ      0x2002 ; xQueueReceiveFromISR + 68
        0x00002018:    2d00        .-      CMP      r5,#0
        0x0000201a:    d0f2        ..      BEQ      0x2002 ; xQueueReceiveFromISR + 68
        0x0000201c:    2001        .       MOVS     r0,#1
        0x0000201e:    6028        (`      STR      r0,[r5,#0]
        0x00002020:    e7ef        ..      B        0x2002 ; xQueueReceiveFromISR + 68
        0x00002022:    2400        .$      MOVS     r4,#0
        0x00002024:    4630        0F      MOV      r0,r6
        0x00002026:    f7fef8e8    ....    BL       vPortClearInterruptMask ; 0x1fa
        0x0000202a:    4620         F      MOV      r0,r4
        0x0000202c:    e562        b.      B        0x1af4 ; xQueueGenericCreate + 58
    uxQueueMessagesWaiting
        0x0000202e:    b510        ..      PUSH     {r4,lr}
        0x00002030:    0004        ..      MOVS     r4,r0
        0x00002032:    d006        ..      BEQ      0x2042 ; uxQueueMessagesWaiting + 20
        0x00002034:    f000f8ed    ....    BL       vPortEnterCritical ; 0x2212
        0x00002038:    6ba4        .k      LDR      r4,[r4,#0x38]
        0x0000203a:    f000f8f0    ....    BL       vPortExitCritical ; 0x221e
        0x0000203e:    4620         F      MOV      r0,r4
        0x00002040:    bd10        ..      POP      {r4,pc}
        0x00002042:    f7fef8d3    ....    BL       ulPortSetInterruptMask ; 0x1ec
        0x00002046:    e7fe        ..      B        0x2046 ; uxQueueMessagesWaiting + 24
    uxQueueMessagesWaitingFromISR
        0x00002048:    b510        ..      PUSH     {r4,lr}
        0x0000204a:    b108        ..      CBZ      r0,0x2050 ; uxQueueMessagesWaitingFromISR + 8
        0x0000204c:    6b80        .k      LDR      r0,[r0,#0x38]
        0x0000204e:    bd10        ..      POP      {r4,pc}
        0x00002050:    f7fef8cc    ....    BL       ulPortSetInterruptMask ; 0x1ec
        0x00002054:    e7fe        ..      B        0x2054 ; uxQueueMessagesWaitingFromISR + 12
    vQueueDelete
        0x00002056:    b510        ..      PUSH     {r4,lr}
        0x00002058:    0004        ..      MOVS     r4,r0
        0x0000205a:    d00a        ..      BEQ      0x2072 ; vQueueDelete + 28
        0x0000205c:    4a4c        LJ      LDR      r2,[pc,#304] ; [0x2190] = 0x20000230
        0x0000205e:    2100        .!      MOVS     r1,#0
        0x00002060:    eb0203c1    ....    ADD      r3,r2,r1,LSL #3
        0x00002064:    685b        [h      LDR      r3,[r3,#4]
        0x00002066:    4283        .B      CMP      r3,r0
        0x00002068:    d106        ..      BNE      0x2078 ; vQueueDelete + 34
        0x0000206a:    2000        .       MOVS     r0,#0
        0x0000206c:    f8420031    B.1.    STR      r0,[r2,r1,LSL #3]
        0x00002070:    e005        ..      B        0x207e ; vQueueDelete + 40
        0x00002072:    f7fef8bb    ....    BL       ulPortSetInterruptMask ; 0x1ec
        0x00002076:    e7fe        ..      B        0x2076 ; vQueueDelete + 32
        0x00002078:    1c49        I.      ADDS     r1,r1,#1
        0x0000207a:    2908        .)      CMP      r1,#8
        0x0000207c:    d3f0        ..      BCC      0x2060 ; vQueueDelete + 10
        0x0000207e:    6820         h      LDR      r0,[r4,#0]
        0x00002080:    f000f945    ..E.    BL       vPortFree ; 0x230e
        0x00002084:    4620         F      MOV      r0,r4
        0x00002086:    e8bd4010    ...@    POP      {r4,lr}
        0x0000208a:    f000b940    ..@.    B.W      vPortFree ; 0x230e
    ucQueueGetQueueNumber
        0x0000208e:    f890004c    ..L.    LDRB     r0,[r0,#0x4c]
        0x00002092:    4770        pG      BX       lr
    vQueueSetQueueNumber
        0x00002094:    f880104c    ..L.    STRB     r1,[r0,#0x4c]
        0x00002098:    4770        pG      BX       lr
    ucQueueGetQueueType
        0x0000209a:    f890004d    ..M.    LDRB     r0,[r0,#0x4d]
        0x0000209e:    4770        pG      BX       lr
    xQueueIsQueueEmptyFromISR
        0x000020a0:    b510        ..      PUSH     {r4,lr}
        0x000020a2:    b118        ..      CBZ      r0,0x20ac ; xQueueIsQueueEmptyFromISR + 12
        0x000020a4:    6b80        .k      LDR      r0,[r0,#0x38]
        0x000020a6:    b120         .      CBZ      r0,0x20b2 ; xQueueIsQueueEmptyFromISR + 18
        0x000020a8:    2000        .       MOVS     r0,#0
        0x000020aa:    bd10        ..      POP      {r4,pc}
        0x000020ac:    f7fef89e    ....    BL       ulPortSetInterruptMask ; 0x1ec
        0x000020b0:    e7fe        ..      B        0x20b0 ; xQueueIsQueueEmptyFromISR + 16
        0x000020b2:    2001        .       MOVS     r0,#1
        0x000020b4:    bd10        ..      POP      {r4,pc}
    xQueueIsQueueFullFromISR
        0x000020b6:    b510        ..      PUSH     {r4,lr}
        0x000020b8:    b128        (.      CBZ      r0,0x20c6 ; xQueueIsQueueFullFromISR + 16
        0x000020ba:    6b81        .k      LDR      r1,[r0,#0x38]
        0x000020bc:    6bc0        .k      LDR      r0,[r0,#0x3c]
        0x000020be:    4281        .B      CMP      r1,r0
        0x000020c0:    d104        ..      BNE      0x20cc ; xQueueIsQueueFullFromISR + 22
        0x000020c2:    2001        .       MOVS     r0,#1
        0x000020c4:    bd10        ..      POP      {r4,pc}
        0x000020c6:    f7fef891    ....    BL       ulPortSetInterruptMask ; 0x1ec
        0x000020ca:    e7fe        ..      B        0x20ca ; xQueueIsQueueFullFromISR + 20
        0x000020cc:    2000        .       MOVS     r0,#0
        0x000020ce:    bd10        ..      POP      {r4,pc}
    vQueueAddToRegistry
        0x000020d0:    b510        ..      PUSH     {r4,lr}
        0x000020d2:    4b2f        /K      LDR      r3,[pc,#188] ; [0x2190] = 0x20000230
        0x000020d4:    2200        ."      MOVS     r2,#0
        0x000020d6:    f8534032    S.2@    LDR      r4,[r3,r2,LSL #3]
        0x000020da:    b11c        ..      CBZ      r4,0x20e4 ; vQueueAddToRegistry + 20
        0x000020dc:    1c52        R.      ADDS     r2,r2,#1
        0x000020de:    2a08        .*      CMP      r2,#8
        0x000020e0:    d3f9        ..      BCC      0x20d6 ; vQueueAddToRegistry + 6
        0x000020e2:    bd10        ..      POP      {r4,pc}
        0x000020e4:    f8431032    C.2.    STR      r1,[r3,r2,LSL #3]
        0x000020e8:    eb0301c2    ....    ADD      r1,r3,r2,LSL #3
        0x000020ec:    6048        H`      STR      r0,[r1,#4]
        0x000020ee:    bd10        ..      POP      {r4,pc}
    vQueueWaitForMessageRestricted
        0x000020f0:    b570        p.      PUSH     {r4-r6,lr}
        0x000020f2:    460d        .F      MOV      r5,r1
        0x000020f4:    4604        .F      MOV      r4,r0
        0x000020f6:    f000f88c    ....    BL       vPortEnterCritical ; 0x2212
        0x000020fa:    6c61        al      LDR      r1,[r4,#0x44]
        0x000020fc:    2000        .       MOVS     r0,#0
        0x000020fe:    1c49        I.      ADDS     r1,r1,#1
        0x00002100:    d100        ..      BNE      0x2104 ; vQueueWaitForMessageRestricted + 20
        0x00002102:    6460        `d      STR      r0,[r4,#0x44]
        0x00002104:    6ca1        .l      LDR      r1,[r4,#0x48]
        0x00002106:    1c49        I.      ADDS     r1,r1,#1
        0x00002108:    d100        ..      BNE      0x210c ; vQueueWaitForMessageRestricted + 28
        0x0000210a:    64a0        .d      STR      r0,[r4,#0x48]
        0x0000210c:    f000f887    ....    BL       vPortExitCritical ; 0x221e
        0x00002110:    6ba0        .k      LDR      r0,[r4,#0x38]
        0x00002112:    b920         .      CBNZ     r0,0x211e ; vQueueWaitForMessageRestricted + 46
        0x00002114:    4629        )F      MOV      r1,r5
        0x00002116:    f1040024    ..$.    ADD      r0,r4,#0x24
        0x0000211a:    f7fff9a4    ....    BL       vTaskPlaceOnEventListRestricted ; 0x1466
        0x0000211e:    4620         F      MOV      r0,r4
        0x00002120:    e8bd4070    ..p@    POP      {r4-r6,lr}
        0x00002124:    e53c        <.      B        prvUnlockQueue ; 0x1ba0
    xQueueCreateSet
        0x00002126:    2200        ."      MOVS     r2,#0
        0x00002128:    2104        .!      MOVS     r1,#4
        0x0000212a:    e4c6        ..      B        xQueueGenericCreate ; 0x1aba
    xQueueAddToSet
        0x0000212c:    b570        p.      PUSH     {r4-r6,lr}
        0x0000212e:    4604        .F      MOV      r4,r0
        0x00002130:    6d00        .m      LDR      r0,[r0,#0x50]
        0x00002132:    460d        .F      MOV      r5,r1
        0x00002134:    b108        ..      CBZ      r0,0x213a ; xQueueAddToSet + 14
        0x00002136:    2000        .       MOVS     r0,#0
        0x00002138:    bd70        p.      POP      {r4-r6,pc}
        0x0000213a:    f000f86a    ..j.    BL       vPortEnterCritical ; 0x2212
        0x0000213e:    6525        %e      STR      r5,[r4,#0x50]
        0x00002140:    f000f86d    ..m.    BL       vPortExitCritical ; 0x221e
        0x00002144:    2001        .       MOVS     r0,#1
        0x00002146:    bd70        p.      POP      {r4-r6,pc}
    xQueueRemoveFromSet
        0x00002148:    b510        ..      PUSH     {r4,lr}
        0x0000214a:    4604        .F      MOV      r4,r0
        0x0000214c:    6d00        .m      LDR      r0,[r0,#0x50]
        0x0000214e:    4288        .B      CMP      r0,r1
        0x00002150:    d101        ..      BNE      0x2156 ; xQueueRemoveFromSet + 14
        0x00002152:    6ba0        .k      LDR      r0,[r4,#0x38]
        0x00002154:    b108        ..      CBZ      r0,0x215a ; xQueueRemoveFromSet + 18
        0x00002156:    2000        .       MOVS     r0,#0
        0x00002158:    bd10        ..      POP      {r4,pc}
        0x0000215a:    f000f85a    ..Z.    BL       vPortEnterCritical ; 0x2212
        0x0000215e:    2000        .       MOVS     r0,#0
        0x00002160:    6520         e      STR      r0,[r4,#0x50]
        0x00002162:    f000f85c    ..\.    BL       vPortExitCritical ; 0x221e
        0x00002166:    2001        .       MOVS     r0,#1
        0x00002168:    bd10        ..      POP      {r4,pc}
    xQueueSelectFromSet
        0x0000216a:    b508        ..      PUSH     {r3,lr}
        0x0000216c:    2300        .#      MOVS     r3,#0
        0x0000216e:    460a        .F      MOV      r2,r1
        0x00002170:    4669        iF      MOV      r1,sp
        0x00002172:    9300        ..      STR      r3,[sp,#0]
        0x00002174:    f7fffe26    ..&.    BL       xQueueGenericReceive ; 0x1dc4
        0x00002178:    9800        ..      LDR      r0,[sp,#0]
        0x0000217a:    bd08        ..      POP      {r3,pc}
    xQueueSelectFromSetFromISR
        0x0000217c:    b508        ..      PUSH     {r3,lr}
        0x0000217e:    2100        .!      MOVS     r1,#0
        0x00002180:    460a        .F      MOV      r2,r1
        0x00002182:    9100        ..      STR      r1,[sp,#0]
        0x00002184:    4669        iF      MOV      r1,sp
        0x00002186:    f7ffff1a    ....    BL       xQueueReceiveFromISR ; 0x1fbe
        0x0000218a:    9800        ..      LDR      r0,[sp,#0]
        0x0000218c:    bd08        ..      POP      {r3,pc}
    $d
        0x0000218e:    0000        ..      DCW    0
        0x00002190:    20000230    0..     DCD    536871472
    $t
    .text
    pxPortInitialiseStack
        0x00002194:    b510        ..      PUSH     {r4,lr}
        0x00002196:    1f03        ..      SUBS     r3,r0,#4
        0x00002198:    f04f7480    O..t    MOV      r4,#0x1000000
        0x0000219c:    601c        .`      STR      r4,[r3,#0]
        0x0000219e:    1f1b        ..      SUBS     r3,r3,#4
        0x000021a0:    6019        .`      STR      r1,[r3,#0]
        0x000021a2:    1f19        ..      SUBS     r1,r3,#4
        0x000021a4:    2300        .#      MOVS     r3,#0
        0x000021a6:    600b        .`      STR      r3,[r1,#0]
        0x000021a8:    3914        .9      SUBS     r1,r1,#0x14
        0x000021aa:    600a        .`      STR      r2,[r1,#0]
        0x000021ac:    1f09        ..      SUBS     r1,r1,#4
        0x000021ae:    1eda        ..      SUBS     r2,r3,#3
        0x000021b0:    3844        D8      SUBS     r0,r0,#0x44
        0x000021b2:    600a        .`      STR      r2,[r1,#0]
        0x000021b4:    bd10        ..      POP      {r4,pc}
    vPortSetupTimerInterrupt
        0x000021b6:    4825        %H      LDR      r0,[pc,#148] ; [0x224c] = 0x20000000
        0x000021b8:    f44f717a    O.zq    MOV      r1,#0x3e8
        0x000021bc:    6800        .h      LDR      r0,[r0,#0]
        0x000021be:    fbb0f1f1    ....    UDIV     r1,r0,r1
        0x000021c2:    f04f20e0    O..     MOV      r0,#0xe000e000
        0x000021c6:    1e49        I.      SUBS     r1,r1,#1
        0x000021c8:    6141        Aa      STR      r1,[r0,#0x14]
        0x000021ca:    2107        .!      MOVS     r1,#7
        0x000021cc:    6101        .a      STR      r1,[r0,#0x10]
        0x000021ce:    4770        pG      BX       lr
    xPortStartScheduler
        0x000021d0:    481f        .H      LDR      r0,[pc,#124] ; [0x2250] = 0xe000ed20
        0x000021d2:    b510        ..      PUSH     {r4,lr}
        0x000021d4:    6801        .h      LDR      r1,[r0,#0]
        0x000021d6:    f4410170    A.p.    ORR      r1,r1,#0xf00000
        0x000021da:    6001        .`      STR      r1,[r0,#0]
        0x000021dc:    6801        .h      LDR      r1,[r0,#0]
        0x000021de:    f0414170    A.pA    ORR      r1,r1,#0xf0000000
        0x000021e2:    6001        .`      STR      r1,[r0,#0]
        0x000021e4:    f7ffffe7    ....    BL       vPortSetupTimerInterrupt ; 0x21b6
        0x000021e8:    491a        .I      LDR      r1,[pc,#104] ; [0x2254] = 0x200000d0
        0x000021ea:    2000        .       MOVS     r0,#0
        0x000021ec:    6008        .`      STR      r0,[r1,#0]
        0x000021ee:    f7fdffcb    ....    BL       __asm___6_port_c_39a90d8d__prvEnableVFP ; 0x188
        0x000021f2:    4819        .H      LDR      r0,[pc,#100] ; [0x2258] = 0xe000ef34
        0x000021f4:    6801        .h      LDR      r1,[r0,#0]
        0x000021f6:    f0414140    A.@A    ORR      r1,r1,#0xc0000000
        0x000021fa:    6001        .`      STR      r1,[r0,#0]
        0x000021fc:    f7fdffba    ....    BL       __asm___6_port_c_39a90d8d__prvStartFirstTask ; 0x174
        0x00002200:    2000        .       MOVS     r0,#0
        0x00002202:    bd10        ..      POP      {r4,pc}
    vPortEndScheduler
        0x00002204:    4770        pG      BX       lr
    vPortYieldFromISR
        0x00002206:    4912        .I      LDR      r1,[pc,#72] ; [0x2250] = 0xe000ed20
        0x00002208:    f04f5080    O..P    MOV      r0,#0x10000000
        0x0000220c:    391c        .9      SUBS     r1,r1,#0x1c
        0x0000220e:    6008        .`      STR      r0,[r1,#0]
        0x00002210:    4770        pG      BX       lr
    vPortEnterCritical
        0x00002212:    b672        r.      CPSID    i
        0x00002214:    480f        .H      LDR      r0,[pc,#60] ; [0x2254] = 0x200000d0
        0x00002216:    6801        .h      LDR      r1,[r0,#0]
        0x00002218:    1c49        I.      ADDS     r1,r1,#1
        0x0000221a:    6001        .`      STR      r1,[r0,#0]
        0x0000221c:    4770        pG      BX       lr
    vPortExitCritical
        0x0000221e:    490d        .I      LDR      r1,[pc,#52] ; [0x2254] = 0x200000d0
        0x00002220:    6808        .h      LDR      r0,[r1,#0]
        0x00002222:    1e40        @.      SUBS     r0,r0,#1
        0x00002224:    6008        .`      STR      r0,[r1,#0]
        0x00002226:    d100        ..      BNE      0x222a ; vPortExitCritical + 12
        0x00002228:    b662        b.      CPSIE    i
        0x0000222a:    4770        pG      BX       lr
    SysTick_Handler
        0x0000222c:    4908        .I      LDR      r1,[pc,#32] ; [0x2250] = 0xe000ed20
        0x0000222e:    b510        ..      PUSH     {r4,lr}
        0x00002230:    391c        .9      SUBS     r1,r1,#0x1c
        0x00002232:    f04f5080    O..P    MOV      r0,#0x10000000
        0x00002236:    6008        .`      STR      r0,[r1,#0]
        0x00002238:    f7fdffd8    ....    BL       ulPortSetInterruptMask ; 0x1ec
        0x0000223c:    f7fefdea    ....    BL       vTaskIncrementTick ; 0xe14
        0x00002240:    e8bd4010    ...@    POP      {r4,lr}
        0x00002244:    2000        .       MOVS     r0,#0
        0x00002246:    f7fdbfd8    ....    B        vPortClearInterruptMask ; 0x1fa
    $d
        0x0000224a:    0000        ..      DCW    0
        0x0000224c:    20000000    ...     DCD    536870912
        0x00002250:    e000ed20     ...    DCD    3758157088
        0x00002254:    200000d0    ...     DCD    536871120
        0x00002258:    e000ef34    4...    DCD    3758157620
    $t
    .text
    pvPortMalloc
        0x0000225c:    e92d41f0    -..A    PUSH     {r4-r8,lr}
        0x00002260:    4604        .F      MOV      r4,r0
        0x00002262:    2500        .%      MOVS     r5,#0
        0x00002264:    f7fefe9e    ....    BL       vTaskSuspendAll ; 0xfa4
        0x00002268:    4e39        9N      LDR      r6,[pc,#228] ; [0x2350] = 0x200000d4
        0x0000226a:    f1060108    ....    ADD      r1,r6,#8
        0x0000226e:    6870        ph      LDR      r0,[r6,#4]
        0x00002270:    f1010308    ....    ADD      r3,r1,#8
        0x00002274:    b968        h.      CBNZ     r0,0x2292 ; pvPortMalloc + 54
        0x00002276:    4837        7H      LDR      r0,[pc,#220] ; [0x2354] = 0x20000278
        0x00002278:    2700        .'      MOVS     r7,#0
        0x0000227a:    f0200007     ...    BIC      r0,r0,#7
        0x0000227e:    e9c10700    ....    STRD     r0,r7,[r1,#0]
        0x00002282:    f64172f8    A..r    MOV      r2,#0x1ff8
        0x00002286:    e9c37200    ...r    STRD     r7,r2,[r3,#0]
        0x0000228a:    e9c03200    ...2    STRD     r3,r2,[r0,#0]
        0x0000228e:    2001        .       MOVS     r0,#1
        0x00002290:    6070        p`      STR      r0,[r6,#4]
        0x00002292:    b13c        <.      CBZ      r4,0x22a4 ; pvPortMalloc + 72
        0x00002294:    3410        .4      ADDS     r4,r4,#0x10
        0x00002296:    0760        `.      LSLS     r0,r4,#29
        0x00002298:    d004        ..      BEQ      0x22a4 ; pvPortMalloc + 72
        0x0000229a:    f0040007    ....    AND      r0,r4,#7
        0x0000229e:    f1c00008    ....    RSB      r0,r0,#8
        0x000022a2:    4404        .D      ADD      r4,r4,r0
        0x000022a4:    1e60        `.      SUBS     r0,r4,#1
        0x000022a6:    f64172f7    A..r    MOV      r2,#0x1ff7
        0x000022aa:    4290        .B      CMP      r0,r2
        0x000022ac:    d227        '.      BCS      0x22fe ; pvPortMalloc + 162
        0x000022ae:    4a28        (J      LDR      r2,[pc,#160] ; [0x2350] = 0x200000d4
        0x000022b0:    6809        .h      LDR      r1,[r1,#0]
        0x000022b2:    3208        .2      ADDS     r2,r2,#8
        0x000022b4:    e001        ..      B        0x22ba ; pvPortMalloc + 94
        0x000022b6:    460a        .F      MOV      r2,r1
        0x000022b8:    4601        .F      MOV      r1,r0
        0x000022ba:    6848        Hh      LDR      r0,[r1,#4]
        0x000022bc:    42a0        .B      CMP      r0,r4
        0x000022be:    d202        ..      BCS      0x22c6 ; pvPortMalloc + 106
        0x000022c0:    6808        .h      LDR      r0,[r1,#0]
        0x000022c2:    2800        .(      CMP      r0,#0
        0x000022c4:    d1f7        ..      BNE      0x22b6 ; pvPortMalloc + 90
        0x000022c6:    4299        .B      CMP      r1,r3
        0x000022c8:    d019        ..      BEQ      0x22fe ; pvPortMalloc + 162
        0x000022ca:    6815        .h      LDR      r5,[r2,#0]
        0x000022cc:    6808        .h      LDR      r0,[r1,#0]
        0x000022ce:    6010        .`      STR      r0,[r2,#0]
        0x000022d0:    6848        Hh      LDR      r0,[r1,#4]
        0x000022d2:    3510        .5      ADDS     r5,r5,#0x10
        0x000022d4:    1b00        ..      SUBS     r0,r0,r4
        0x000022d6:    2820         (      CMP      r0,#0x20
        0x000022d8:    d90d        ..      BLS      0x22f6 ; pvPortMalloc + 154
        0x000022da:    190b        ..      ADDS     r3,r1,r4
        0x000022dc:    6058        X`      STR      r0,[r3,#4]
        0x000022de:    481c        .H      LDR      r0,[pc,#112] ; [0x2350] = 0x200000d4
        0x000022e0:    604c        L`      STR      r4,[r1,#4]
        0x000022e2:    3008        .0      ADDS     r0,r0,#8
        0x000022e4:    685c        \h      LDR      r4,[r3,#4]
        0x000022e6:    e000        ..      B        0x22ea ; pvPortMalloc + 142
        0x000022e8:    4610        .F      MOV      r0,r2
        0x000022ea:    6802        .h      LDR      r2,[r0,#0]
        0x000022ec:    6857        Wh      LDR      r7,[r2,#4]
        0x000022ee:    42a7        .B      CMP      r7,r4
        0x000022f0:    d3fa        ..      BCC      0x22e8 ; pvPortMalloc + 140
        0x000022f2:    601a        .`      STR      r2,[r3,#0]
        0x000022f4:    6003        .`      STR      r3,[r0,#0]
        0x000022f6:    6848        Hh      LDR      r0,[r1,#4]
        0x000022f8:    6831        1h      LDR      r1,[r6,#0]
        0x000022fa:    1a08        ..      SUBS     r0,r1,r0
        0x000022fc:    6030        0`      STR      r0,[r6,#0]
        0x000022fe:    f7fefde3    ....    BL       xTaskResumeAll ; 0xec8
        0x00002302:    b90d        ..      CBNZ     r5,0x2308 ; pvPortMalloc + 172
        0x00002304:    f7fef89a    ....    BL       vApplicationMallocFailedHook ; 0x43c
        0x00002308:    4628        (F      MOV      r0,r5
        0x0000230a:    e8bd81f0    ....    POP      {r4-r8,pc}
    vPortFree
        0x0000230e:    b510        ..      PUSH     {r4,lr}
        0x00002310:    2800        .(      CMP      r0,#0
        0x00002312:    d017        ..      BEQ      0x2344 ; vPortFree + 54
        0x00002314:    f1a00410    ....    SUB      r4,r0,#0x10
        0x00002318:    f7fefe44    ..D.    BL       vTaskSuspendAll ; 0xfa4
        0x0000231c:    490c        .I      LDR      r1,[pc,#48] ; [0x2350] = 0x200000d4
        0x0000231e:    6860        `h      LDR      r0,[r4,#4]
        0x00002320:    3108        .1      ADDS     r1,r1,#8
        0x00002322:    e000        ..      B        0x2326 ; vPortFree + 24
        0x00002324:    4611        .F      MOV      r1,r2
        0x00002326:    680a        .h      LDR      r2,[r1,#0]
        0x00002328:    6853        Sh      LDR      r3,[r2,#4]
        0x0000232a:    4283        .B      CMP      r3,r0
        0x0000232c:    d3fa        ..      BCC      0x2324 ; vPortFree + 22
        0x0000232e:    6022        "`      STR      r2,[r4,#0]
        0x00002330:    4807        .H      LDR      r0,[pc,#28] ; [0x2350] = 0x200000d4
        0x00002332:    600c        .`      STR      r4,[r1,#0]
        0x00002334:    6861        ah      LDR      r1,[r4,#4]
        0x00002336:    6802        .h      LDR      r2,[r0,#0]
        0x00002338:    4411        .D      ADD      r1,r1,r2
        0x0000233a:    6001        .`      STR      r1,[r0,#0]
        0x0000233c:    e8bd4010    ...@    POP      {r4,lr}
        0x00002340:    f7febdc2    ....    B        xTaskResumeAll ; 0xec8
        0x00002344:    bd10        ..      POP      {r4,pc}
    xPortGetFreeHeapSize
        0x00002346:    4802        .H      LDR      r0,[pc,#8] ; [0x2350] = 0x200000d4
        0x00002348:    6800        .h      LDR      r0,[r0,#0]
        0x0000234a:    4770        pG      BX       lr
    vPortInitialiseBlocks
        0x0000234c:    4770        pG      BX       lr
    $d
        0x0000234e:    0000        ..      DCW    0
        0x00002350:    200000d4    ...     DCD    536871124
        0x00002354:    20000278    x..     DCD    536871544
    $t
    .text
    Hard_Fault_Handler
    __tagsym$$used
        0x00002358:    4604        .F      MOV      r4,r0
        0x0000235a:    a02a        *.      ADR      r0,{pc}+0xaa ; 0x2404
        0x0000235c:    f000ff04    ....    BL       __0printf$5 ; 0x3168
        0x00002360:    4620         F      MOV      r0,r4
        0x00002362:    f000f82b    ..+.    BL       stackDump ; 0x23bc
        0x00002366:    e7fe        ..      B        0x2366 ; Hard_Fault_Handler + 14
    SendChar_ToUART
        0x00002368:    492c        ,I      LDR      r1,[pc,#176] ; [0x241c] = 0x40070000
        0x0000236a:    698a        .i      LDR      r2,[r1,#0x18]
        0x0000236c:    0212        ..      LSLS     r2,r2,#8
        0x0000236e:    d4fc        ..      BMI      0x236a ; SendChar_ToUART + 2
        0x00002370:    280a        .(      CMP      r0,#0xa
        0x00002372:    d104        ..      BNE      0x237e ; SendChar_ToUART + 22
        0x00002374:    220d        ."      MOVS     r2,#0xd
        0x00002376:    600a        .`      STR      r2,[r1,#0]
        0x00002378:    698a        .i      LDR      r2,[r1,#0x18]
        0x0000237a:    0212        ..      LSLS     r2,r2,#8
        0x0000237c:    d4fc        ..      BMI      0x2378 ; SendChar_ToUART + 16
        0x0000237e:    6008        .`      STR      r0,[r1,#0]
        0x00002380:    4770        pG      BX       lr
    SendChar
        0x00002382:    e7f1        ..      B        SendChar_ToUART ; 0x2368
    GetChar
        0x00002384:    4825        %H      LDR      r0,[pc,#148] ; [0x241c] = 0x40070000
        0x00002386:    6981        .i      LDR      r1,[r0,#0x18]
        0x00002388:    0449        I.      LSLS     r1,r1,#17
        0x0000238a:    d4fc        ..      BMI      0x2386 ; GetChar + 2
        0x0000238c:    6800        .h      LDR      r0,[r0,#0]
        0x0000238e:    b2c0        ..      UXTB     r0,r0
        0x00002390:    4770        pG      BX       lr
    kbhit
        0x00002392:    4822        "H      LDR      r0,[pc,#136] ; [0x241c] = 0x40070000
        0x00002394:    6980        .i      LDR      r0,[r0,#0x18]
        0x00002396:    f3c03080    ...0    UBFX     r0,r0,#14,#1
        0x0000239a:    4770        pG      BX       lr
    IsDebugFifoEmpty
        0x0000239c:    481f        .H      LDR      r0,[pc,#124] ; [0x241c] = 0x40070000
        0x0000239e:    6980        .i      LDR      r0,[r0,#0x18]
        0x000023a0:    f3c07000    ...p    UBFX     r0,r0,#28,#1
        0x000023a4:    4770        pG      BX       lr
    _ttywrch
        0x000023a6:    e7df        ..      B        SendChar_ToUART ; 0x2368
    fputc
        0x000023a8:    b500        ..      PUSH     {lr}
        0x000023aa:    4603        .F      MOV      r3,r0
        0x000023ac:    f7ffffdc    ....    BL       SendChar_ToUART ; 0x2368
        0x000023b0:    4618        .F      MOV      r0,r3
        0x000023b2:    bd00        ..      POP      {pc}
    fgetc
        0x000023b4:    e7e6        ..      B        GetChar ; 0x2384
    ferror
        0x000023b6:    f04f30ff    O..0    MOV      r0,#0xffffffff
        0x000023ba:    4770        pG      BX       lr
    stackDump
        0x000023bc:    b510        ..      PUSH     {r4,lr}
        0x000023be:    4604        .F      MOV      r4,r0
        0x000023c0:    6801        .h      LDR      r1,[r0,#0]
        0x000023c2:    a017        ..      ADR      r0,{pc}+0x5e ; 0x2420
        0x000023c4:    f000fed0    ....    BL       __0printf$5 ; 0x3168
        0x000023c8:    a018        ..      ADR      r0,{pc}+0x64 ; 0x242c
        0x000023ca:    6861        ah      LDR      r1,[r4,#4]
        0x000023cc:    f000fecc    ....    BL       __0printf$5 ; 0x3168
        0x000023d0:    a019        ..      ADR      r0,{pc}+0x68 ; 0x2438
        0x000023d2:    68a1        .h      LDR      r1,[r4,#8]
        0x000023d4:    f000fec8    ....    BL       __0printf$5 ; 0x3168
        0x000023d8:    a01a        ..      ADR      r0,{pc}+0x6c ; 0x2444
        0x000023da:    68e1        .h      LDR      r1,[r4,#0xc]
        0x000023dc:    f000fec4    ....    BL       __0printf$5 ; 0x3168
        0x000023e0:    a01b        ..      ADR      r0,{pc}+0x70 ; 0x2450
        0x000023e2:    6921        !i      LDR      r1,[r4,#0x10]
        0x000023e4:    f000fec0    ....    BL       __0printf$5 ; 0x3168
        0x000023e8:    a01c        ..      ADR      r0,{pc}+0x74 ; 0x245c
        0x000023ea:    6961        ai      LDR      r1,[r4,#0x14]
        0x000023ec:    f000febc    ....    BL       __0printf$5 ; 0x3168
        0x000023f0:    a01d        ..      ADR      r0,{pc}+0x78 ; 0x2468
        0x000023f2:    69a1        .i      LDR      r1,[r4,#0x18]
        0x000023f4:    f000feb8    ....    BL       __0printf$5 ; 0x3168
        0x000023f8:    69e1        .i      LDR      r1,[r4,#0x1c]
        0x000023fa:    e8bd4010    ...@    POP      {r4,lr}
        0x000023fe:    a01d        ..      ADR      r0,{pc}+0x76 ; 0x2474
        0x00002400:    f000beb2    ....    B.W      __0printf$5 ; 0x3168
    $d
        0x00002404:    48206e49    In H    DCD    1210084937
        0x00002408:    20647261    ard     DCD    543453793
        0x0000240c:    6c756146    Faul    DCD    1819631942
        0x00002410:    61482074    t Ha    DCD    1632116852
        0x00002414:    656c646e    ndle    DCD    1701602414
        0x00002418:    00000a72    r...    DCD    2674
        0x0000241c:    40070000    ...@    DCD    1074200576
        0x00002420:    20203072    r0      DCD    538980466
        0x00002424:    7830203d    = 0x    DCD    2016419901
        0x00002428:    000a7825    %x..    DCD    686117
        0x0000242c:    20203172    r1      DCD    538980722
        0x00002430:    7830203d    = 0x    DCD    2016419901
        0x00002434:    000a7825    %x..    DCD    686117
        0x00002438:    20203272    r2      DCD    538980978
        0x0000243c:    7830203d    = 0x    DCD    2016419901
        0x00002440:    000a7825    %x..    DCD    686117
        0x00002444:    20203372    r3      DCD    538981234
        0x00002448:    7830203d    = 0x    DCD    2016419901
        0x0000244c:    000a7825    %x..    DCD    686117
        0x00002450:    20323172    r12     DCD    540160370
        0x00002454:    7830203d    = 0x    DCD    2016419901
        0x00002458:    000a7825    %x..    DCD    686117
        0x0000245c:    2020726c    lr      DCD    538997356
        0x00002460:    7830203d    = 0x    DCD    2016419901
        0x00002464:    000a7825    %x..    DCD    686117
        0x00002468:    20206370    pc      DCD    538993520
        0x0000246c:    7830203d    = 0x    DCD    2016419901
        0x00002470:    000a7825    %x..    DCD    686117
        0x00002474:    20727370    psr     DCD    544371568
        0x00002478:    7830203d    = 0x    DCD    2016419901
        0x0000247c:    000a7825    %x..    DCD    686117
    $t
    .text
    CLK_GetPLLClockFreq
        0x00002480:    b508        ..      PUSH     {r3,lr}
        0x00002482:    a0d5        ..      ADR      r0,{pc}+0x356 ; 0x27d8
        0x00002484:    6800        .h      LDR      r0,[r0,#0]
        0x00002486:    9000        ..      STR      r0,[sp,#0]
        0x00002488:    f04f4080    O..@    MOV      r0,#0x40000000
        0x0000248c:    f8d01240    ..@.    LDR      r1,[r0,#0x240]
        0x00002490:    f4112fa0    .../    TST      r1,#0x50000
        0x00002494:    d001        ..      BEQ      0x249a ; CLK_GetPLLClockFreq + 26
        0x00002496:    2000        .       MOVS     r0,#0
        0x00002498:    bd08        ..      POP      {r3,pc}
        0x0000249a:    0308        ..      LSLS     r0,r1,#12
        0x0000249c:    d501        ..      BPL      0x24a2 ; CLK_GetPLLClockFreq + 34
        0x0000249e:    48cf        .H      LDR      r0,[pc,#828] ; [0x27dc] = 0x1518000
        0x000024a0:    e000        ..      B        0x24a4 ; CLK_GetPLLClockFreq + 36
        0x000024a2:    48cf        .H      LDR      r0,[pc,#828] ; [0x27e0] = 0xb71b00
        0x000024a4:    038a        ..      LSLS     r2,r1,#14
        0x000024a6:    d4f7        ..      BMI      0x2498 ; CLK_GetPLLClockFreq + 24
        0x000024a8:    f3c10208    ....    UBFX     r2,r1,#0,#9
        0x000024ac:    f3c13381    ...3    UBFX     r3,r1,#14,#2
        0x000024b0:    0880        ..      LSRS     r0,r0,#2
        0x000024b2:    1c92        ..      ADDS     r2,r2,#2
        0x000024b4:    f81d3003    ...0    LDRB     r3,[sp,r3]
        0x000024b8:    f3c12144    ..D!    UBFX     r1,r1,#9,#5
        0x000024bc:    4350        PC      MULS     r0,r2,r0
        0x000024be:    1c89        ..      ADDS     r1,r1,#2
        0x000024c0:    fb11f103    ....    SMULBB   r1,r1,r3
        0x000024c4:    fbb0f0f1    ....    UDIV     r0,r0,r1
        0x000024c8:    0080        ..      LSLS     r0,r0,#2
        0x000024ca:    bd08        ..      POP      {r3,pc}
    UART_ClearIntFlag
        0x000024cc:    054a        J.      LSLS     r2,r1,#21
        0x000024ce:    d503        ..      BPL      0x24d8 ; UART_ClearIntFlag + 12
        0x000024d0:    2270        p"      MOVS     r2,#0x70
        0x000024d2:    6182        .a      STR      r2,[r0,#0x18]
        0x000024d4:    2208        ."      MOVS     r2,#8
        0x000024d6:    6182        .a      STR      r2,[r0,#0x18]
        0x000024d8:    050a        ..      LSLS     r2,r1,#20
        0x000024da:    d503        ..      BPL      0x24e4 ; UART_ClearIntFlag + 24
        0x000024dc:    6942        Bi      LDR      r2,[r0,#0x14]
        0x000024de:    f0420201    B...    ORR      r2,r2,#1
        0x000024e2:    6142        Ba      STR      r2,[r0,#0x14]
        0x000024e4:    048a        ..      LSLS     r2,r1,#18
        0x000024e6:    d501        ..      BPL      0x24ec ; UART_ClearIntFlag + 32
        0x000024e8:    4abe        .J      LDR      r2,[pc,#760] ; [0x27e4] = 0x1000001
        0x000024ea:    6182        .a      STR      r2,[r0,#0x18]
        0x000024ec:    03ca        ..      LSLS     r2,r1,#15
        0x000024ee:    d502        ..      BPL      0x24f6 ; UART_ClearIntFlag + 42
        0x000024f0:    f44f3280    O..2    MOV      r2,#0x10000
        0x000024f4:    61c2        .a      STR      r2,[r0,#0x1c]
        0x000024f6:    038a        ..      LSLS     r2,r1,#14
        0x000024f8:    d502        ..      BPL      0x2500 ; UART_ClearIntFlag + 52
        0x000024fa:    f44f3200    O..2    MOV      r2,#0x20000
        0x000024fe:    61c2        .a      STR      r2,[r0,#0x1c]
        0x00002500:    0409        ..      LSLS     r1,r1,#16
        0x00002502:    d504        ..      BPL      0x250e ; UART_ClearIntFlag + 66
        0x00002504:    2180        .!      MOVS     r1,#0x80
        0x00002506:    61c1        .a      STR      r1,[r0,#0x1c]
        0x00002508:    f240310f    @..1    MOV      r1,#0x30f
        0x0000250c:    6381        .c      STR      r1,[r0,#0x38]
        0x0000250e:    4770        pG      BX       lr
    UART_Close
        0x00002510:    2100        .!      MOVS     r1,#0
        0x00002512:    6041        A`      STR      r1,[r0,#4]
        0x00002514:    4770        pG      BX       lr
    UART_DisableFlowCtrl
        0x00002516:    6841        Ah      LDR      r1,[r0,#4]
        0x00002518:    f4215140    !.@Q    BIC      r1,r1,#0x3000
        0x0000251c:    6041        A`      STR      r1,[r0,#4]
        0x0000251e:    4770        pG      BX       lr
    UART_DisableInt
        0x00002520:    6842        Bh      LDR      r2,[r0,#4]
        0x00002522:    438a        .C      BICS     r2,r2,r1
        0x00002524:    6042        B`      STR      r2,[r0,#4]
        0x00002526:    49b0        .I      LDR      r1,[pc,#704] ; [0x27e8] = 0x40070000
        0x00002528:    4288        .B      CMP      r0,r1
        0x0000252a:    d101        ..      BNE      0x2530 ; UART_DisableInt + 16
        0x0000252c:    2024        $       MOVS     r0,#0x24
        0x0000252e:    e00a        ..      B        0x2546 ; UART_DisableInt + 38
        0x00002530:    49ae        .I      LDR      r1,[pc,#696] ; [0x27ec] = 0x40071000
        0x00002532:    4288        .B      CMP      r0,r1
        0x00002534:    d101        ..      BNE      0x253a ; UART_DisableInt + 26
        0x00002536:    2025        %       MOVS     r0,#0x25
        0x00002538:    e005        ..      B        0x2546 ; UART_DisableInt + 38
        0x0000253a:    49ad        .I      LDR      r1,[pc,#692] ; [0x27f0] = 0x40072000
        0x0000253c:    4288        .B      CMP      r0,r1
        0x0000253e:    d101        ..      BNE      0x2544 ; UART_DisableInt + 36
        0x00002540:    2030        0       MOVS     r0,#0x30
        0x00002542:    e000        ..      B        0x2546 ; UART_DisableInt + 38
        0x00002544:    2031        1       MOVS     r0,#0x31
        0x00002546:    f000b93b    ..;.    B.W      NVIC_DisableIRQ ; 0x27c0
    UART_EnableFlowCtrl
        0x0000254a:    6901        .i      LDR      r1,[r0,#0x10]
        0x0000254c:    f4417100    A..q    ORR      r1,r1,#0x200
        0x00002550:    6101        .a      STR      r1,[r0,#0x10]
        0x00002552:    6941        Ai      LDR      r1,[r0,#0x14]
        0x00002554:    f4417180    A..q    ORR      r1,r1,#0x100
        0x00002558:    6141        Aa      STR      r1,[r0,#0x14]
        0x0000255a:    6841        Ah      LDR      r1,[r0,#4]
        0x0000255c:    f4415140    A.@Q    ORR      r1,r1,#0x3000
        0x00002560:    6041        A`      STR      r1,[r0,#4]
        0x00002562:    4770        pG      BX       lr
    UART_EnableInt
        0x00002564:    6842        Bh      LDR      r2,[r0,#4]
        0x00002566:    430a        .C      ORRS     r2,r2,r1
        0x00002568:    6042        B`      STR      r2,[r0,#4]
        0x0000256a:    499f        .I      LDR      r1,[pc,#636] ; [0x27e8] = 0x40070000
        0x0000256c:    4288        .B      CMP      r0,r1
        0x0000256e:    d101        ..      BNE      0x2574 ; UART_EnableInt + 16
        0x00002570:    2024        $       MOVS     r0,#0x24
        0x00002572:    e00a        ..      B        0x258a ; UART_EnableInt + 38
        0x00002574:    499d        .I      LDR      r1,[pc,#628] ; [0x27ec] = 0x40071000
        0x00002576:    4288        .B      CMP      r0,r1
        0x00002578:    d101        ..      BNE      0x257e ; UART_EnableInt + 26
        0x0000257a:    2025        %       MOVS     r0,#0x25
        0x0000257c:    e005        ..      B        0x258a ; UART_EnableInt + 38
        0x0000257e:    499c        .I      LDR      r1,[pc,#624] ; [0x27f0] = 0x40072000
        0x00002580:    4288        .B      CMP      r0,r1
        0x00002582:    d101        ..      BNE      0x2588 ; UART_EnableInt + 36
        0x00002584:    2030        0       MOVS     r0,#0x30
        0x00002586:    e000        ..      B        0x258a ; UART_EnableInt + 38
        0x00002588:    2031        1       MOVS     r0,#0x31
        0x0000258a:    f000b90e    ....    B.W      NVIC_EnableIRQ ; 0x27aa
    UART_Open
        0x0000258e:    e92d41ff    -..A    PUSH     {r0-r8,lr}
        0x00002592:    4604        .F      MOV      r4,r0
        0x00002594:    4897        .H      LDR      r0,[pc,#604] ; [0x27f4] = 0x34b4
        0x00002596:    460d        .F      MOV      r5,r1
        0x00002598:    c80f        ..      LDM      r0,{r0-r3}
        0x0000259a:    e88d000f    ....    STM      sp,{r0-r3}
        0x0000259e:    f04f4080    O..@    MOV      r0,#0x40000000
        0x000025a2:    f8d01214    ....    LDR      r1,[r0,#0x214]
        0x000025a6:    f8d00220    .. .    LDR      r0,[r0,#0x220]
        0x000025aa:    f3c16701    ...g    UBFX     r7,r1,#24,#2
        0x000025ae:    f3c02603    ...&    UBFX     r6,r0,#8,#4
        0x000025b2:    2000        .       MOVS     r0,#0
        0x000025b4:    6320         c      STR      r0,[r4,#0x30]
        0x000025b6:    2003        .       MOVS     r0,#3
        0x000025b8:    60e0        .`      STR      r0,[r4,#0xc]
        0x000025ba:    68a0        .h      LDR      r0,[r4,#8]
        0x000025bc:    498e        .I      LDR      r1,[pc,#568] ; [0x27f8] = 0xfff0ff0f
        0x000025be:    4008        .@      ANDS     r0,r0,r1
        0x000025c0:    60a0        .`      STR      r0,[r4,#8]
        0x000025c2:    46e8        .F      MOV      r8,sp
        0x000025c4:    2f01        ./      CMP      r7,#1
        0x000025c6:    d102        ..      BNE      0x25ce ; UART_Open + 64
        0x000025c8:    f7ffff5a    ..Z.    BL       CLK_GetPLLClockFreq ; 0x2480
        0x000025cc:    9001        ..      STR      r0,[sp,#4]
        0x000025ce:    2d00        .-      CMP      r5,#0
        0x000025d0:    d01a        ..      BEQ      0x2608 ; UART_Open + 122
        0x000025d2:    f8581027    X.'.    LDR      r1,[r8,r7,LSL #2]
        0x000025d6:    1c76        v.      ADDS     r6,r6,#1
        0x000025d8:    fbb1f0f6    ....    UDIV     r0,r1,r6
        0x000025dc:    eb000055    ..U.    ADD      r0,r0,r5,LSR #1
        0x000025e0:    fbb0f0f5    ....    UDIV     r0,r0,r5
        0x000025e4:    1e80        ..      SUBS     r0,r0,#2
        0x000025e6:    f5b03f80    ...?    CMP      r0,#0x10000
        0x000025ea:    d30a        ..      BCC      0x2602 ; UART_Open + 116
        0x000025ec:    fbb1f0f6    ....    UDIV     r0,r1,r6
        0x000025f0:    eb0000c5    ....    ADD      r0,r0,r5,LSL #3
        0x000025f4:    fbb0f0f5    ....    UDIV     r0,r0,r5
        0x000025f8:    f06f0101    o...    MVN      r1,#1
        0x000025fc:    eb011010    ....    ADD      r0,r1,r0,LSR #4
        0x00002600:    e001        ..      B        0x2606 ; UART_Open + 120
        0x00002602:    f0405040    @.@P    ORR      r0,r0,#0x30000000
        0x00002606:    6260        `b      STR      r0,[r4,#0x24]
        0x00002608:    e8bd81ff    ....    POP      {r0-r8,pc}
    UART_Read
        0x0000260c:    b570        p.      PUSH     {r4-r6,lr}
        0x0000260e:    4604        .F      MOV      r4,r0
        0x00002610:    2000        .       MOVS     r0,#0
        0x00002612:    f04f4580    O..E    MOV      r5,#0x40000000
        0x00002616:    e00c        ..      B        0x2632 ; UART_Read + 38
        0x00002618:    2300        .#      MOVS     r3,#0
        0x0000261a:    e004        ..      B        0x2626 ; UART_Read + 26
        0x0000261c:    1c5b        [.      ADDS     r3,r3,#1
        0x0000261e:    42ab        .B      CMP      r3,r5
        0x00002620:    d301        ..      BCC      0x2626 ; UART_Read + 26
        0x00002622:    2000        .       MOVS     r0,#0
        0x00002624:    bd70        p.      POP      {r4-r6,pc}
        0x00002626:    69a6        .i      LDR      r6,[r4,#0x18]
        0x00002628:    0476        v.      LSLS     r6,r6,#17
        0x0000262a:    d4f7        ..      BMI      0x261c ; UART_Read + 16
        0x0000262c:    6823        #h      LDR      r3,[r4,#0]
        0x0000262e:    540b        .T      STRB     r3,[r1,r0]
        0x00002630:    1c40        @.      ADDS     r0,r0,#1
        0x00002632:    4290        .B      CMP      r0,r2
        0x00002634:    d3f0        ..      BCC      0x2618 ; UART_Read + 12
        0x00002636:    bd70        p.      POP      {r4-r6,pc}
    UART_SetLine_Config
        0x00002638:    e92d5fff    -.._    PUSH     {r0-r12,lr}
        0x0000263c:    460c        .F      MOV      r4,r1
        0x0000263e:    496d        mI      LDR      r1,[pc,#436] ; [0x27f4] = 0x34b4
        0x00002640:    469a        .F      MOV      r10,r3
        0x00002642:    3110        .1      ADDS     r1,r1,#0x10
        0x00002644:    4691        .F      MOV      r9,r2
        0x00002646:    4605        .F      MOV      r5,r0
        0x00002648:    c90f        ..      LDM      r1,{r0-r3}
        0x0000264a:    f8ddb038    ..8.    LDR      r11,[sp,#0x38]
        0x0000264e:    e88d000f    ....    STM      sp,{r0-r3}
        0x00002652:    f04f4080    O..@    MOV      r0,#0x40000000
        0x00002656:    f8d01214    ....    LDR      r1,[r0,#0x214]
        0x0000265a:    f8d00220    .. .    LDR      r0,[r0,#0x220]
        0x0000265e:    f3c16701    ...g    UBFX     r7,r1,#24,#2
        0x00002662:    f3c02603    ...&    UBFX     r6,r0,#8,#4
        0x00002666:    46e8        .F      MOV      r8,sp
        0x00002668:    2f01        ./      CMP      r7,#1
        0x0000266a:    d102        ..      BNE      0x2672 ; UART_SetLine_Config + 58
        0x0000266c:    f7ffff08    ....    BL       CLK_GetPLLClockFreq ; 0x2480
        0x00002670:    9001        ..      STR      r0,[sp,#4]
        0x00002672:    b1d4        ..      CBZ      r4,0x26aa ; UART_SetLine_Config + 114
        0x00002674:    f8581027    X.'.    LDR      r1,[r8,r7,LSL #2]
        0x00002678:    1c76        v.      ADDS     r6,r6,#1
        0x0000267a:    fbb1f0f6    ....    UDIV     r0,r1,r6
        0x0000267e:    eb000054    ..T.    ADD      r0,r0,r4,LSR #1
        0x00002682:    fbb0f0f4    ....    UDIV     r0,r0,r4
        0x00002686:    1e80        ..      SUBS     r0,r0,#2
        0x00002688:    f5b03f80    ...?    CMP      r0,#0x10000
        0x0000268c:    d30a        ..      BCC      0x26a4 ; UART_SetLine_Config + 108
        0x0000268e:    fbb1f0f6    ....    UDIV     r0,r1,r6
        0x00002692:    eb0000c4    ....    ADD      r0,r0,r4,LSL #3
        0x00002696:    fbb0f0f4    ....    UDIV     r0,r0,r4
        0x0000269a:    f06f0101    o...    MVN      r1,#1
        0x0000269e:    eb011010    ....    ADD      r0,r1,r0,LSR #4
        0x000026a2:    e001        ..      B        0x26a8 ; UART_SetLine_Config + 112
        0x000026a4:    f0405040    @.@P    ORR      r0,r0,#0x30000000
        0x000026a8:    6268        hb      STR      r0,[r5,#0x24]
        0x000026aa:    ea49000a    I...    ORR      r0,r9,r10
        0x000026ae:    ea40000b    @...    ORR      r0,r0,r11
        0x000026b2:    60e8        .`      STR      r0,[r5,#0xc]
        0x000026b4:    e8bd9fff    ....    POP      {r0-r12,pc}
    UART_SetTimeoutCnt
        0x000026b8:    6a02        .j      LDR      r2,[r0,#0x20]
        0x000026ba:    f02202ff    "...    BIC      r2,r2,#0xff
        0x000026be:    430a        .C      ORRS     r2,r2,r1
        0x000026c0:    6202        .b      STR      r2,[r0,#0x20]
        0x000026c2:    6841        Ah      LDR      r1,[r0,#4]
        0x000026c4:    f4416100    A..a    ORR      r1,r1,#0x800
        0x000026c8:    6041        A`      STR      r1,[r0,#4]
        0x000026ca:    4770        pG      BX       lr
    UART_SelectIrDAMode
        0x000026cc:    e92d47ff    -..G    PUSH     {r0-r10,lr}
        0x000026d0:    4604        .F      MOV      r4,r0
        0x000026d2:    4848        HH      LDR      r0,[pc,#288] ; [0x27f4] = 0x34b4
        0x000026d4:    4691        .F      MOV      r9,r2
        0x000026d6:    3020         0      ADDS     r0,r0,#0x20
        0x000026d8:    460d        .F      MOV      r5,r1
        0x000026da:    c80f        ..      LDM      r0,{r0-r3}
        0x000026dc:    e88d000f    ....    STM      sp,{r0-r3}
        0x000026e0:    2002        .       MOVS     r0,#2
        0x000026e2:    6320         c      STR      r0,[r4,#0x30]
        0x000026e4:    0740        @.      LSLS     r0,r0,#29
        0x000026e6:    f8d01214    ....    LDR      r1,[r0,#0x214]
        0x000026ea:    f8d00220    .. .    LDR      r0,[r0,#0x220]
        0x000026ee:    f3c16601    ...f    UBFX     r6,r1,#24,#2
        0x000026f2:    f3c02703    ...'    UBFX     r7,r0,#8,#4
        0x000026f6:    46e8        .F      MOV      r8,sp
        0x000026f8:    2e01        ..      CMP      r6,#1
        0x000026fa:    d102        ..      BNE      0x2702 ; UART_SelectIrDAMode + 54
        0x000026fc:    f7fffec0    ....    BL       CLK_GetPLLClockFreq ; 0x2480
        0x00002700:    9001        ..      STR      r0,[sp,#4]
        0x00002702:    b185        ..      CBZ      r5,0x2726 ; UART_SelectIrDAMode + 90
        0x00002704:    f8580026    X.&.    LDR      r0,[r8,r6,LSL #2]
        0x00002708:    1c7f        ..      ADDS     r7,r7,#1
        0x0000270a:    fbb0f0f7    ....    UDIV     r0,r0,r7
        0x0000270e:    eb0000c5    ....    ADD      r0,r0,r5,LSL #3
        0x00002712:    fbb0f0f5    ....    UDIV     r0,r0,r5
        0x00002716:    f06f0101    o...    MVN      r1,#1
        0x0000271a:    eb011010    ....    ADD      r0,r1,r0,LSR #4
        0x0000271e:    0c09        ..      LSRS     r1,r1,#16
        0x00002720:    4288        .B      CMP      r0,r1
        0x00002722:    d200        ..      BCS      0x2726 ; UART_SelectIrDAMode + 90
        0x00002724:    6260        `b      STR      r0,[r4,#0x24]
        0x00002726:    6aa0        .j      LDR      r0,[r4,#0x28]
        0x00002728:    f1b90f00    ....    CMP      r9,#0
        0x0000272c:    d008        ..      BEQ      0x2740 ; UART_SelectIrDAMode + 116
        0x0000272e:    f0200020     . .    BIC      r0,r0,#0x20
        0x00002732:    62a0        .b      STR      r0,[r4,#0x28]
        0x00002734:    6aa0        .j      LDR      r0,[r4,#0x28]
        0x00002736:    f0400002    @...    ORR      r0,r0,#2
        0x0000273a:    62a0        .b      STR      r0,[r4,#0x28]
        0x0000273c:    e8bd87ff    ....    POP      {r0-r10,pc}
        0x00002740:    f0400040    @.@.    ORR      r0,r0,#0x40
        0x00002744:    62a0        .b      STR      r0,[r4,#0x28]
        0x00002746:    6aa0        .j      LDR      r0,[r4,#0x28]
        0x00002748:    f0200002     ...    BIC      r0,r0,#2
        0x0000274c:    e7f5        ..      B        0x273a ; UART_SelectIrDAMode + 110
    UART_SelectRS485Mode
        0x0000274e:    b510        ..      PUSH     {r4,lr}
        0x00002750:    2303        .#      MOVS     r3,#3
        0x00002752:    6303        .c      STR      r3,[r0,#0x30]
        0x00002754:    6ac3        .j      LDR      r3,[r0,#0x2c]
        0x00002756:    4c29        )L      LDR      r4,[pc,#164] ; [0x27fc] = 0xfff8ff
        0x00002758:    4023        #@      ANDS     r3,r3,r4
        0x0000275a:    62c3        .b      STR      r3,[r0,#0x2c]
        0x0000275c:    6ac3        .j      LDR      r3,[r0,#0x2c]
        0x0000275e:    ea416102    A..a    ORR      r1,r1,r2,LSL #24
        0x00002762:    430b        .C      ORRS     r3,r3,r1
        0x00002764:    62c3        .b      STR      r3,[r0,#0x2c]
        0x00002766:    bd10        ..      POP      {r4,pc}
    UART_SelectLINMode
        0x00002768:    2301        .#      MOVS     r3,#1
        0x0000276a:    6303        .c      STR      r3,[r0,#0x30]
        0x0000276c:    6ac3        .j      LDR      r3,[r0,#0x2c]
        0x0000276e:    f02303cf    #...    BIC      r3,r3,#0xcf
        0x00002772:    62c3        .b      STR      r3,[r0,#0x2c]
        0x00002774:    6ac3        .j      LDR      r3,[r0,#0x2c]
        0x00002776:    4311        .C      ORRS     r1,r1,r2
        0x00002778:    430b        .C      ORRS     r3,r3,r1
        0x0000277a:    62c3        .b      STR      r3,[r0,#0x2c]
        0x0000277c:    4770        pG      BX       lr
    UART_Write
        0x0000277e:    b570        p.      PUSH     {r4-r6,lr}
        0x00002780:    4604        .F      MOV      r4,r0
        0x00002782:    2000        .       MOVS     r0,#0
        0x00002784:    f04f4580    O..E    MOV      r5,#0x40000000
        0x00002788:    e00c        ..      B        0x27a4 ; UART_Write + 38
        0x0000278a:    2300        .#      MOVS     r3,#0
        0x0000278c:    e004        ..      B        0x2798 ; UART_Write + 26
        0x0000278e:    1c5b        [.      ADDS     r3,r3,#1
        0x00002790:    42ab        .B      CMP      r3,r5
        0x00002792:    d301        ..      BCC      0x2798 ; UART_Write + 26
        0x00002794:    2000        .       MOVS     r0,#0
        0x00002796:    bd70        p.      POP      {r4-r6,pc}
        0x00002798:    69a6        .i      LDR      r6,[r4,#0x18]
        0x0000279a:    00f6        ..      LSLS     r6,r6,#3
        0x0000279c:    d5f7        ..      BPL      0x278e ; UART_Write + 16
        0x0000279e:    5c0b        .\      LDRB     r3,[r1,r0]
        0x000027a0:    6023        #`      STR      r3,[r4,#0]
        0x000027a2:    1c40        @.      ADDS     r0,r0,#1
        0x000027a4:    4290        .B      CMP      r0,r2
        0x000027a6:    d1f0        ..      BNE      0x278a ; UART_Write + 12
        0x000027a8:    bd70        p.      POP      {r4-r6,pc}
    NVIC_EnableIRQ
        0x000027aa:    f000021f    ....    AND      r2,r0,#0x1f
        0x000027ae:    2101        .!      MOVS     r1,#1
        0x000027b0:    4091        .@      LSLS     r1,r1,r2
        0x000027b2:    0940        @.      LSRS     r0,r0,#5
        0x000027b4:    0080        ..      LSLS     r0,r0,#2
        0x000027b6:    f10020e0    ...     ADD      r0,r0,#0xe000e000
        0x000027ba:    f8c01100    ....    STR      r1,[r0,#0x100]
        0x000027be:    4770        pG      BX       lr
    NVIC_DisableIRQ
        0x000027c0:    f000021f    ....    AND      r2,r0,#0x1f
        0x000027c4:    2101        .!      MOVS     r1,#1
        0x000027c6:    4091        .@      LSLS     r1,r1,r2
        0x000027c8:    0940        @.      LSRS     r0,r0,#5
        0x000027ca:    0080        ..      LSLS     r0,r0,#2
        0x000027cc:    f10020e0    ...     ADD      r0,r0,#0xe000e000
        0x000027d0:    f8c01180    ....    STR      r1,[r0,#0x180]
        0x000027d4:    4770        pG      BX       lr
    $d
        0x000027d6:    0000        ..      DCW    0
        0x000027d8:    04020201    ....    DCD    67240449
        0x000027dc:    01518000    ..Q.    DCD    22118400
        0x000027e0:    00b71b00    ....    DCD    12000000
        0x000027e4:    01000001    ....    DCD    16777217
        0x000027e8:    40070000    ...@    DCD    1074200576
        0x000027ec:    40071000    ...@    DCD    1074204672
        0x000027f0:    40072000    . .@    DCD    1074208768
        0x000027f4:    000034b4    .4..    DCD    13492
        0x000027f8:    fff0ff0f    ....    DCD    4293984015
        0x000027fc:    00fff8ff    ....    DCD    16775423
    $t
    .text
    CLK_DisableModuleClock
        0x00002800:    0f81        ..      LSRS     r1,r0,#30
        0x00002802:    0089        ..      LSLS     r1,r1,#2
        0x00002804:    f1014180    ...A    ADD      r1,r1,#0x40000000
        0x00002808:    f8d12204    ..."    LDR      r2,[r1,#0x204]
        0x0000280c:    f000031f    ....    AND      r3,r0,#0x1f
        0x00002810:    2001        .       MOVS     r0,#1
        0x00002812:    4098        .@      LSLS     r0,r0,r3
        0x00002814:    4382        .C      BICS     r2,r2,r0
        0x00002816:    f8c12204    ..."    STR      r2,[r1,#0x204]
        0x0000281a:    4770        pG      BX       lr
    CLK_DisableCKO
        0x0000281c:    48fa        .H      LDR      r0,[pc,#1000] ; [0x2c08] = 0x57c00006
        0x0000281e:    e7ef        ..      B        CLK_DisableModuleClock ; 0x2800
    CLK_SetModuleClock
        0x00002820:    b570        p.      PUSH     {r4-r6,lr}
        0x00002822:    f4103f7f    ...?    TST      r0,#0x3fc00
        0x00002826:    d00d        ..      BEQ      0x2844 ; CLK_SetModuleClock + 36
        0x00002828:    4cf8        .L      LDR      r4,[pc,#992] ; [0x2c0c] = 0x40000220
        0x0000282a:    f3c04381    ...C    UBFX     r3,r0,#18,#2
        0x0000282e:    eb040383    ....    ADD      r3,r4,r3,LSL #2
        0x00002832:    681c        .h      LDR      r4,[r3,#0]
        0x00002834:    f3c02587    ...%    UBFX     r5,r0,#10,#8
        0x00002838:    f3c01644    ..D.    UBFX     r6,r0,#5,#5
        0x0000283c:    40b5        .@      LSLS     r5,r5,r6
        0x0000283e:    43ac        .C      BICS     r4,r4,r5
        0x00002840:    4314        .C      ORRS     r4,r4,r2
        0x00002842:    601c        .`      STR      r4,[r3,#0]
        0x00002844:    0e42        B.      LSRS     r2,r0,#25
        0x00002846:    0752        R.      LSLS     r2,r2,#29
        0x00002848:    d00e        ..      BEQ      0x2868 ; CLK_SetModuleClock + 72
        0x0000284a:    4bf0        .K      LDR      r3,[pc,#960] ; [0x2c0c] = 0x40000220
        0x0000284c:    f3c07201    ...r    UBFX     r2,r0,#28,#2
        0x00002850:    3b10        .;      SUBS     r3,r3,#0x10
        0x00002852:    eb030282    ....    ADD      r2,r3,r2,LSL #2
        0x00002856:    6813        .h      LDR      r3,[r2,#0]
        0x00002858:    f3c06442    ..Bd    UBFX     r4,r0,#25,#3
        0x0000285c:    f3c05004    ...P    UBFX     r0,r0,#20,#5
        0x00002860:    4084        .@      LSLS     r4,r4,r0
        0x00002862:    43a3        .C      BICS     r3,r3,r4
        0x00002864:    430b        .C      ORRS     r3,r3,r1
        0x00002866:    6013        .`      STR      r3,[r2,#0]
        0x00002868:    bd70        p.      POP      {r4-r6,pc}
    CLK_EnableModuleClock
        0x0000286a:    0f81        ..      LSRS     r1,r0,#30
        0x0000286c:    0089        ..      LSLS     r1,r1,#2
        0x0000286e:    f1014180    ...A    ADD      r1,r1,#0x40000000
        0x00002872:    f8d12204    ..."    LDR      r2,[r1,#0x204]
        0x00002876:    f000031f    ....    AND      r3,r0,#0x1f
        0x0000287a:    2001        .       MOVS     r0,#1
        0x0000287c:    4098        .@      LSLS     r0,r0,r3
        0x0000287e:    4302        .C      ORRS     r2,r2,r0
        0x00002880:    f8c12204    ..."    STR      r2,[r1,#0x204]
        0x00002884:    4770        pG      BX       lr
    CLK_EnableCKO
        0x00002886:    b530        0.      PUSH     {r4,r5,lr}
        0x00002888:    4604        .F      MOV      r4,r0
        0x0000288a:    ea411042    A.B.    ORR      r0,r1,r2,LSL #5
        0x0000288e:    f04f4280    O..B    MOV      r2,#0x40000000
        0x00002892:    f0400110    @...    ORR      r1,r0,#0x10
        0x00002896:    f8c21260    ..`.    STR      r1,[r2,#0x260]
        0x0000289a:    4ddb        .M      LDR      r5,[pc,#876] ; [0x2c08] = 0x57c00006
        0x0000289c:    4628        (F      MOV      r0,r5
        0x0000289e:    f7ffffe4    ....    BL       CLK_EnableModuleClock ; 0x286a
        0x000028a2:    4621        !F      MOV      r1,r4
        0x000028a4:    4628        (F      MOV      r0,r5
        0x000028a6:    e8bd4030    ..0@    POP      {r4,r5,lr}
        0x000028aa:    2200        ."      MOVS     r2,#0
        0x000028ac:    e7b8        ..      B        CLK_SetModuleClock ; 0x2820
    CLK_PowerDown
        0x000028ae:    48d8        .H      LDR      r0,[pc,#864] ; [0x2c10] = 0xe000ed10
        0x000028b0:    6801        .h      LDR      r1,[r0,#0]
        0x000028b2:    f0410104    A...    ORR      r1,r1,#4
        0x000028b6:    6001        .`      STR      r1,[r0,#0]
        0x000028b8:    0680        ..      LSLS     r0,r0,#26
        0x000028ba:    f8d01200    ....    LDR      r1,[r0,#0x200]
        0x000028be:    f44171c0    A..q    ORR      r1,r1,#0x180
        0x000028c2:    f8c01200    ....    STR      r1,[r0,#0x200]
        0x000028c6:    bf30        0.      WFI      
        0x000028c8:    4770        pG      BX       lr
    CLK_Idle
        0x000028ca:    48d1        .H      LDR      r0,[pc,#836] ; [0x2c10] = 0xe000ed10
        0x000028cc:    6801        .h      LDR      r1,[r0,#0]
        0x000028ce:    f0210104    !...    BIC      r1,r1,#4
        0x000028d2:    6001        .`      STR      r1,[r0,#0]
        0x000028d4:    0680        ..      LSLS     r0,r0,#26
        0x000028d6:    f8d01200    ....    LDR      r1,[r0,#0x200]
        0x000028da:    f0210180    !...    BIC      r1,r1,#0x80
        0x000028de:    f8c01200    ....    STR      r1,[r0,#0x200]
        0x000028e2:    bf30        0.      WFI      
        0x000028e4:    4770        pG      BX       lr
    CLK_GetHXTFreq
        0x000028e6:    f04f4080    O..@    MOV      r0,#0x40000000
        0x000028ea:    f8d00200    ....    LDR      r0,[r0,#0x200]
        0x000028ee:    07c0        ..      LSLS     r0,r0,#31
        0x000028f0:    d000        ..      BEQ      0x28f4 ; CLK_GetHXTFreq + 14
        0x000028f2:    48c8        .H      LDR      r0,[pc,#800] ; [0x2c14] = 0xb71b00
        0x000028f4:    4770        pG      BX       lr
    CLK_GetLXTFreq
        0x000028f6:    f04f4080    O..@    MOV      r0,#0x40000000
        0x000028fa:    f8d00200    ....    LDR      r0,[r0,#0x200]
        0x000028fe:    0780        ..      LSLS     r0,r0,#30
        0x00002900:    d502        ..      BPL      0x2908 ; CLK_GetLXTFreq + 18
        0x00002902:    f44f4000    O..@    MOV      r0,#0x8000
        0x00002906:    4770        pG      BX       lr
        0x00002908:    2000        .       MOVS     r0,#0
        0x0000290a:    4770        pG      BX       lr
    CLK_GetPCLK0Freq
        0x0000290c:    b510        ..      PUSH     {r4,lr}
        0x0000290e:    f7fdfc85    ....    BL       SystemCoreClockUpdate ; 0x21c
        0x00002912:    f04f4080    O..@    MOV      r0,#0x40000000
        0x00002916:    f8d00210    ....    LDR      r0,[r0,#0x210]
        0x0000291a:    0641        A.      LSLS     r1,r0,#25
        0x0000291c:    48be        .H      LDR      r0,[pc,#760] ; [0x2c18] = 0x20000000
        0x0000291e:    6800        .h      LDR      r0,[r0,#0]
        0x00002920:    d500        ..      BPL      0x2924 ; CLK_GetPCLK0Freq + 24
        0x00002922:    0840        @.      LSRS     r0,r0,#1
        0x00002924:    bd10        ..      POP      {r4,pc}
    CLK_GetPCLK1Freq
        0x00002926:    b510        ..      PUSH     {r4,lr}
        0x00002928:    f7fdfc78    ..x.    BL       SystemCoreClockUpdate ; 0x21c
        0x0000292c:    f04f4080    O..@    MOV      r0,#0x40000000
        0x00002930:    f8d00210    ....    LDR      r0,[r0,#0x210]
        0x00002934:    0601        ..      LSLS     r1,r0,#24
        0x00002936:    48b8        .H      LDR      r0,[pc,#736] ; [0x2c18] = 0x20000000
        0x00002938:    6800        .h      LDR      r0,[r0,#0]
        0x0000293a:    d500        ..      BPL      0x293e ; CLK_GetPCLK1Freq + 24
        0x0000293c:    0840        @.      LSRS     r0,r0,#1
        0x0000293e:    bd10        ..      POP      {r4,pc}
    CLK_GetHCLKFreq
        0x00002940:    b510        ..      PUSH     {r4,lr}
        0x00002942:    f7fdfc6b    ..k.    BL       SystemCoreClockUpdate ; 0x21c
        0x00002946:    48b4        .H      LDR      r0,[pc,#720] ; [0x2c18] = 0x20000000
        0x00002948:    6800        .h      LDR      r0,[r0,#0]
        0x0000294a:    bd10        ..      POP      {r4,pc}
    CLK_GetCPUFreq
        0x0000294c:    b510        ..      PUSH     {r4,lr}
        0x0000294e:    f7fdfc65    ..e.    BL       SystemCoreClockUpdate ; 0x21c
        0x00002952:    48b1        .H      LDR      r0,[pc,#708] ; [0x2c18] = 0x20000000
        0x00002954:    6800        .h      LDR      r0,[r0,#0]
        0x00002956:    bd10        ..      POP      {r4,pc}
    CLK_WaitClockReady
        0x00002958:    b510        ..      PUSH     {r4,lr}
        0x0000295a:    4604        .F      MOV      r4,r0
        0x0000295c:    49af        .I      LDR      r1,[pc,#700] ; [0x2c1c] = 0x20f580
        0x0000295e:    f04f4280    O..B    MOV      r2,#0x40000000
        0x00002962:    e005        ..      B        0x2970 ; CLK_WaitClockReady + 24
        0x00002964:    1e0b        ..      SUBS     r3,r1,#0
        0x00002966:    f1a10101    ....    SUB      r1,r1,#1
        0x0000296a:    dc01        ..      BGT      0x2970 ; CLK_WaitClockReady + 24
        0x0000296c:    2000        .       MOVS     r0,#0
        0x0000296e:    bd10        ..      POP      {r4,pc}
        0x00002970:    f8d23250    ..P2    LDR      r3,[r2,#0x250]
        0x00002974:    ea340003    4...    BICS     r0,r4,r3
        0x00002978:    d1f4        ..      BNE      0x2964 ; CLK_WaitClockReady + 12
        0x0000297a:    2001        .       MOVS     r0,#1
        0x0000297c:    bd10        ..      POP      {r4,pc}
    CLK_SetHCLK
        0x0000297e:    e92d41f0    -..A    PUSH     {r4-r8,lr}
        0x00002982:    f04f4480    O..D    MOV      r4,#0x40000000
        0x00002986:    4607        .F      MOV      r7,r0
        0x00002988:    f8d40250    ..P.    LDR      r0,[r4,#0x250]
        0x0000298c:    460e        .F      MOV      r6,r1
        0x0000298e:    f0000510    ....    AND      r5,r0,#0x10
        0x00002992:    f8d40200    ....    LDR      r0,[r4,#0x200]
        0x00002996:    f0400004    @...    ORR      r0,r0,#4
        0x0000299a:    f8c40200    ....    STR      r0,[r4,#0x200]
        0x0000299e:    2010        .       MOVS     r0,#0x10
        0x000029a0:    f5047400    ...t    ADD      r4,r4,#0x200
        0x000029a4:    f7ffffd8    ....    BL       CLK_WaitClockReady ; 0x2958
        0x000029a8:    6920         i      LDR      r0,[r4,#0x10]
        0x000029aa:    f0400007    @...    ORR      r0,r0,#7
        0x000029ae:    6120         a      STR      r0,[r4,#0x10]
        0x000029b0:    6a20         j      LDR      r0,[r4,#0x20]
        0x000029b2:    f020000f     ...    BIC      r0,r0,#0xf
        0x000029b6:    4330        0C      ORRS     r0,r0,r6
        0x000029b8:    6220         b      STR      r0,[r4,#0x20]
        0x000029ba:    6920         i      LDR      r0,[r4,#0x10]
        0x000029bc:    f0200007     ...    BIC      r0,r0,#7
        0x000029c0:    4338        8C      ORRS     r0,r0,r7
        0x000029c2:    6120         a      STR      r0,[r4,#0x10]
        0x000029c4:    f5a47400    ...t    SUB      r4,r4,#0x200
        0x000029c8:    f7fdfc28    ..(.    BL       SystemCoreClockUpdate ; 0x21c
        0x000029cc:    2d00        .-      CMP      r5,#0
        0x000029ce:    d105        ..      BNE      0x29dc ; CLK_SetHCLK + 94
        0x000029d0:    f8d40200    ....    LDR      r0,[r4,#0x200]
        0x000029d4:    f0200004     ...    BIC      r0,r0,#4
        0x000029d8:    f8c40200    ....    STR      r0,[r4,#0x200]
        0x000029dc:    e8bd81f0    ....    POP      {r4-r8,pc}
    CLK_DisablePLL
        0x000029e0:    f04f4080    O..@    MOV      r0,#0x40000000
        0x000029e4:    f8d01240    ..@.    LDR      r1,[r0,#0x240]
        0x000029e8:    f4413180    A..1    ORR      r1,r1,#0x10000
        0x000029ec:    f8c01240    ..@.    STR      r1,[r0,#0x240]
        0x000029f0:    4770        pG      BX       lr
    CLK_EnablePLL
        0x000029f2:    e92d4ff8    -..O    PUSH     {r3-r11,lr}
        0x000029f6:    460d        .F      MOV      r5,r1
        0x000029f8:    4607        .F      MOV      r7,r0
        0x000029fa:    f7fffff1    ....    BL       CLK_DisablePLL ; 0x29e0
        0x000029fe:    f04f4b80    O..K    MOV      r11,#0x40000000
        0x00002a02:    4c84        .L      LDR      r4,[pc,#528] ; [0x2c14] = 0xb71b00
        0x00002a04:    4e86        .N      LDR      r6,[pc,#536] ; [0x2c20] = 0x1518000
        0x00002a06:    f8db1200    ....    LDR      r1,[r11,#0x200]
        0x00002a0a:    4658        XF      MOV      r0,r11
        0x00002a0c:    b19f        ..      CBZ      r7,0x2a36 ; CLK_EnablePLL + 68
        0x00002a0e:    f0410104    A...    ORR      r1,r1,#4
        0x00002a12:    f8c01200    ....    STR      r1,[r0,#0x200]
        0x00002a16:    2010        .       MOVS     r0,#0x10
        0x00002a18:    f7ffff9e    ....    BL       CLK_WaitClockReady ; 0x2958
        0x00002a1c:    f44f2000    O..     MOV      r0,#0x80000
        0x00002a20:    46b1        .F      MOV      r9,r6
        0x00002a22:    2104        .!      MOVS     r1,#4
        0x00002a24:    9000        ..      STR      r0,[sp,#0]
        0x00002a26:    487f        .H      LDR      r0,[pc,#508] ; [0x2c24] = 0xf1194d7f
        0x00002a28:    4a7f        .J      LDR      r2,[pc,#508] ; [0x2c28] = 0xee6b27f
        0x00002a2a:    4428        (D      ADD      r0,r0,r5
        0x00002a2c:    4290        .B      CMP      r0,r2
        0x00002a2e:    d80e        ..      BHI      0x2a4e ; CLK_EnablePLL + 92
        0x00002a30:    f04f0a00    O...    MOV      r10,#0
        0x00002a34:    e01c        ..      B        0x2a70 ; CLK_EnablePLL + 126
        0x00002a36:    f0410101    A...    ORR      r1,r1,#1
        0x00002a3a:    f8c01200    ....    STR      r1,[r0,#0x200]
        0x00002a3e:    2001        .       MOVS     r0,#1
        0x00002a40:    f7ffff8a    ....    BL       CLK_WaitClockReady ; 0x2958
        0x00002a44:    2000        .       MOVS     r0,#0
        0x00002a46:    46a1        .F      MOV      r9,r4
        0x00002a48:    2102        .!      MOVS     r1,#2
        0x00002a4a:    9000        ..      STR      r0,[sp,#0]
        0x00002a4c:    e7eb        ..      B        0x2a26 ; CLK_EnablePLL + 52
        0x00002a4e:    4877        wH      LDR      r0,[pc,#476] ; [0x2c2c] = 0xf88ca6bf
        0x00002a50:    4a77        wJ      LDR      r2,[pc,#476] ; [0x2c30] = 0x773593f
        0x00002a52:    4428        (D      ADD      r0,r0,r5
        0x00002a54:    4290        .B      CMP      r0,r2
        0x00002a56:    d803        ..      BHI      0x2a60 ; CLK_EnablePLL + 110
        0x00002a58:    f04f0a01    O...    MOV      r10,#1
        0x00002a5c:    006d        m.      LSLS     r5,r5,#1
        0x00002a5e:    e007        ..      B        0x2a70 ; CLK_EnablePLL + 126
        0x00002a60:    4874        tH      LDR      r0,[pc,#464] ; [0x2c34] = 0xfd050f80
        0x00002a62:    4a75        uJ      LDR      r2,[pc,#468] ; [0x2c38] = 0x47868c0
        0x00002a64:    4428        (D      ADD      r0,r0,r5
        0x00002a66:    4290        .B      CMP      r0,r2
        0x00002a68:    d842        B.      BHI      0x2af0 ; CLK_EnablePLL + 254
        0x00002a6a:    f04f0a03    O...    MOV      r10,#3
        0x00002a6e:    00ad        ..      LSLS     r5,r5,#2
        0x00002a70:    2600        .&      MOVS     r6,#0
        0x00002a72:    f04f32ff    O..2    MOV      r2,#0xffffffff
        0x00002a76:    4637        7F      MOV      r7,r6
        0x00002a78:    e022        ".      B        0x2ac0 ; CLK_EnablePLL + 206
        0x00002a7a:    fbb9fcf1    ....    UDIV     r12,r9,r1
        0x00002a7e:    486f        oH      LDR      r0,[pc,#444] ; [0x2c3c] = 0xffe795ff
        0x00002a80:    4b6f        oK      LDR      r3,[pc,#444] ; [0x2c40] = 0xdbb9ff
        0x00002a82:    4460        `D      ADD      r0,r0,r12
        0x00002a84:    4298        .B      CMP      r0,r3
        0x00002a86:    d21a        ..      BCS      0x2abe ; CLK_EnablePLL + 204
        0x00002a88:    f8dfe1b8    ....    LDR      lr,[pc,#440] ; [0x2c44] = 0xf4143e00
        0x00002a8c:    f8df81b8    ....    LDR      r8,[pc,#440] ; [0x2c48] = 0x11e1a300
        0x00002a90:    2402        .$      MOVS     r4,#2
        0x00002a92:    fb0cf004    ....    MUL      r0,r12,r4
        0x00002a96:    eb00030e    ....    ADD      r3,r0,lr
        0x00002a9a:    4543        CE      CMP      r3,r8
        0x00002a9c:    d80a        ..      BHI      0x2ab4 ; CLK_EnablePLL + 194
        0x00002a9e:    42a8        .B      CMP      r0,r5
        0x00002aa0:    d901        ..      BLS      0x2aa6 ; CLK_EnablePLL + 180
        0x00002aa2:    1b43        C.      SUBS     r3,r0,r5
        0x00002aa4:    e000        ..      B        0x2aa8 ; CLK_EnablePLL + 182
        0x00002aa6:    1a2b        +.      SUBS     r3,r5,r0
        0x00002aa8:    4293        .B      CMP      r3,r2
        0x00002aaa:    d203        ..      BCS      0x2ab4 ; CLK_EnablePLL + 194
        0x00002aac:    001a        ..      MOVS     r2,r3
        0x00002aae:    460e        .F      MOV      r6,r1
        0x00002ab0:    4627        'F      MOV      r7,r4
        0x00002ab2:    d004        ..      BEQ      0x2abe ; CLK_EnablePLL + 204
        0x00002ab4:    f2402001    @..     MOV      r0,#0x201
        0x00002ab8:    1c64        d.      ADDS     r4,r4,#1
        0x00002aba:    4284        .B      CMP      r4,r0
        0x00002abc:    d9e9        ..      BLS      0x2a92 ; CLK_EnablePLL + 160
        0x00002abe:    1c49        I.      ADDS     r1,r1,#1
        0x00002ac0:    2921        !)      CMP      r1,#0x21
        0x00002ac2:    d9da        ..      BLS      0x2a7a ; CLK_EnablePLL + 136
        0x00002ac4:    9800        ..      LDR      r0,[sp,#0]
        0x00002ac6:    ea40318a    @..1    ORR      r1,r0,r10,LSL #14
        0x00002aca:    4860        `H      LDR      r0,[pc,#384] ; [0x2c4c] = 0xfffffc00
        0x00002acc:    eb002046    ..F     ADD      r0,r0,r6,LSL #9
        0x00002ad0:    4301        .C      ORRS     r1,r1,r0
        0x00002ad2:    1eb8        ..      SUBS     r0,r7,#2
        0x00002ad4:    4301        .C      ORRS     r1,r1,r0
        0x00002ad6:    f8cb1240    ..@.    STR      r1,[r11,#0x240]
        0x00002ada:    2004        .       MOVS     r0,#4
        0x00002adc:    f7ffff3c    ..<.    BL       CLK_WaitClockReady ; 0x2958
        0x00002ae0:    f10a0001    ....    ADD      r0,r10,#1
        0x00002ae4:    4370        pC      MULS     r0,r6,r0
        0x00002ae6:    fbb9f0f0    ....    UDIV     r0,r9,r0
        0x00002aea:    4378        xC      MULS     r0,r7,r0
        0x00002aec:    e8bd8ff8    ....    POP      {r3-r11,pc}
        0x00002af0:    b17f        ..      CBZ      r7,0x2b12 ; CLK_EnablePLL + 288
        0x00002af2:    4957        WI      LDR      r1,[pc,#348] ; [0x2c50] = 0x8c432
        0x00002af4:    f8cb1240    ..@.    STR      r1,[r11,#0x240]
        0x00002af8:    2004        .       MOVS     r0,#4
        0x00002afa:    f7ffff2d    ..-.    BL       CLK_WaitClockReady ; 0x2958
        0x00002afe:    a055        U.      ADR      r0,{pc}+0x156 ; 0x2c54
        0x00002b00:    6800        .h      LDR      r0,[r0,#0]
        0x00002b02:    9000        ..      STR      r0,[sp,#0]
        0x00002b04:    f8db1240    ..@.    LDR      r1,[r11,#0x240]
        0x00002b08:    f4112fa0    .../    TST      r1,#0x50000
        0x00002b0c:    d004        ..      BEQ      0x2b18 ; CLK_EnablePLL + 294
        0x00002b0e:    2000        .       MOVS     r0,#0
        0x00002b10:    e7ec        ..      B        0x2aec ; CLK_EnablePLL + 250
        0x00002b12:    f24c012e    L...    MOV      r1,#0xc02e
        0x00002b16:    e7ed        ..      B        0x2af4 ; CLK_EnablePLL + 258
        0x00002b18:    0308        ..      LSLS     r0,r1,#12
        0x00002b1a:    d500        ..      BPL      0x2b1e ; CLK_EnablePLL + 300
        0x00002b1c:    4634        4F      MOV      r4,r6
        0x00002b1e:    0388        ..      LSLS     r0,r1,#14
        0x00002b20:    d501        ..      BPL      0x2b26 ; CLK_EnablePLL + 308
        0x00002b22:    4620         F      MOV      r0,r4
        0x00002b24:    e7e2        ..      B        0x2aec ; CLK_EnablePLL + 250
        0x00002b26:    f3c10008    ....    UBFX     r0,r1,#0,#9
        0x00002b2a:    f3c13281    ...2    UBFX     r2,r1,#14,#2
        0x00002b2e:    08a3        ..      LSRS     r3,r4,#2
        0x00002b30:    1c80        ..      ADDS     r0,r0,#2
        0x00002b32:    f81d2002    ...     LDRB     r2,[sp,r2]
        0x00002b36:    f3c12144    ..D!    UBFX     r1,r1,#9,#5
        0x00002b3a:    4343        CC      MULS     r3,r0,r3
        0x00002b3c:    1c89        ..      ADDS     r1,r1,#2
        0x00002b3e:    fb11f002    ....    SMULBB   r0,r1,r2
        0x00002b42:    fbb3f0f0    ....    UDIV     r0,r3,r0
        0x00002b46:    0080        ..      LSLS     r0,r0,#2
        0x00002b48:    e7d0        ..      B        0x2aec ; CLK_EnablePLL + 250
    CLK_SetCoreClock
        0x00002b4a:    b570        p.      PUSH     {r4-r6,lr}
        0x00002b4c:    f04f4580    O..E    MOV      r5,#0x40000000
        0x00002b50:    4604        .F      MOV      r4,r0
        0x00002b52:    f8d50250    ..P.    LDR      r0,[r5,#0x250]
        0x00002b56:    f0000610    ....    AND      r6,r0,#0x10
        0x00002b5a:    483f        ?H      LDR      r0,[pc,#252] ; [0x2c58] = 0x44aa200
        0x00002b5c:    4284        .B      CMP      r4,r0
        0x00002b5e:    d802        ..      BHI      0x2b66 ; CLK_SetCoreClock + 28
        0x00002b60:    483e        >H      LDR      r0,[pc,#248] ; [0x2c5c] = 0x17d7840
        0x00002b62:    4284        .B      CMP      r4,r0
        0x00002b64:    d200        ..      BCS      0x2b68 ; CLK_SetCoreClock + 30
        0x00002b66:    4604        .F      MOV      r4,r0
        0x00002b68:    f8d50200    ....    LDR      r0,[r5,#0x200]
        0x00002b6c:    f0400004    @...    ORR      r0,r0,#4
        0x00002b70:    f8c50200    ....    STR      r0,[r5,#0x200]
        0x00002b74:    2010        .       MOVS     r0,#0x10
        0x00002b76:    f5057500    ...u    ADD      r5,r5,#0x200
        0x00002b7a:    f7fffeed    ....    BL       CLK_WaitClockReady ; 0x2958
        0x00002b7e:    6928        (i      LDR      r0,[r5,#0x10]
        0x00002b80:    f0400007    @...    ORR      r0,r0,#7
        0x00002b84:    6128        (a      STR      r0,[r5,#0x10]
        0x00002b86:    6a28        (j      LDR      r0,[r5,#0x20]
        0x00002b88:    f020000f     ...    BIC      r0,r0,#0xf
        0x00002b8c:    6228        (b      STR      r0,[r5,#0x20]
        0x00002b8e:    6d28        (m      LDR      r0,[r5,#0x50]
        0x00002b90:    f5a57500    ...u    SUB      r5,r5,#0x200
        0x00002b94:    07c0        ..      LSLS     r0,r0,#31
        0x00002b96:    ea4f0144    O.D.    LSL      r1,r4,#1
        0x00002b9a:    d004        ..      BEQ      0x2ba6 ; CLK_SetCoreClock + 92
        0x00002b9c:    2000        .       MOVS     r0,#0
        0x00002b9e:    f7ffff28    ..(.    BL       CLK_EnablePLL ; 0x29f2
        0x00002ba2:    4604        .F      MOV      r4,r0
        0x00002ba4:    e008        ..      B        0x2bb8 ; CLK_SetCoreClock + 110
        0x00002ba6:    f44f2000    O..     MOV      r0,#0x80000
        0x00002baa:    f7ffff22    ..".    BL       CLK_EnablePLL ; 0x29f2
        0x00002bae:    4604        .F      MOV      r4,r0
        0x00002bb0:    f8d50250    ..P.    LDR      r0,[r5,#0x250]
        0x00002bb4:    f0000610    ....    AND      r6,r0,#0x10
        0x00002bb8:    2101        .!      MOVS     r1,#1
        0x00002bba:    2002        .       MOVS     r0,#2
        0x00002bbc:    f7fffedf    ....    BL       CLK_SetHCLK ; 0x297e
        0x00002bc0:    b92e        ..      CBNZ     r6,0x2bce ; CLK_SetCoreClock + 132
        0x00002bc2:    f8d50200    ....    LDR      r0,[r5,#0x200]
        0x00002bc6:    f0200004     ...    BIC      r0,r0,#4
        0x00002bca:    f8c50200    ....    STR      r0,[r5,#0x200]
        0x00002bce:    0860        `.      LSRS     r0,r4,#1
        0x00002bd0:    bd70        p.      POP      {r4-r6,pc}
    CLK_SetSysTickClockSrc
        0x00002bd2:    f04f4180    O..A    MOV      r1,#0x40000000
        0x00002bd6:    f8d12210    ..."    LDR      r2,[r1,#0x210]
        0x00002bda:    f0220238    ".8.    BIC      r2,r2,#0x38
        0x00002bde:    4302        .C      ORRS     r2,r2,r0
        0x00002be0:    f8c12210    ..."    STR      r2,[r1,#0x210]
        0x00002be4:    4770        pG      BX       lr
    CLK_EnableXtalRC
        0x00002be6:    f04f4180    O..A    MOV      r1,#0x40000000
        0x00002bea:    f8d12200    ..."    LDR      r2,[r1,#0x200]
        0x00002bee:    4302        .C      ORRS     r2,r2,r0
        0x00002bf0:    f8c12200    ..."    STR      r2,[r1,#0x200]
        0x00002bf4:    4770        pG      BX       lr
    CLK_DisableXtalRC
        0x00002bf6:    f04f4180    O..A    MOV      r1,#0x40000000
        0x00002bfa:    f8d12200    ..."    LDR      r2,[r1,#0x200]
        0x00002bfe:    4382        .C      BICS     r2,r2,r0
        0x00002c00:    f8c12200    ..."    STR      r2,[r1,#0x200]
        0x00002c04:    4770        pG      BX       lr
    $d
        0x00002c06:    0000        ..      DCW    0
        0x00002c08:    57c00006    ...W    DCD    1472200710
        0x00002c0c:    40000220     ..@    DCD    1073742368
        0x00002c10:    e000ed10    ....    DCD    3758157072
        0x00002c14:    00b71b00    ....    DCD    12000000
        0x00002c18:    20000000    ...     DCD    536870912
        0x00002c1c:    0020f580    .. .    DCD    2160000
        0x00002c20:    01518000    ..Q.    DCD    22118400
        0x00002c24:    f1194d7f    .M..    DCD    4044967295
        0x00002c28:    0ee6b27f    ....    DCD    249999999
        0x00002c2c:    f88ca6bf    ....    DCD    4169967295
        0x00002c30:    0773593f    ?Ys.    DCD    124999999
        0x00002c34:    fd050f80    ....    DCD    4244967296
        0x00002c38:    047868c0    .hx.    DCD    75000000
        0x00002c3c:    ffe795ff    ....    DCD    4293367295
        0x00002c40:    00dbb9ff    ....    DCD    14399999
        0x00002c44:    f4143e00    .>..    DCD    4094967296
        0x00002c48:    11e1a300    ....    DCD    300000000
        0x00002c4c:    fffffc00    ....    DCD    4294966272
        0x00002c50:    0008c432    2...    DCD    574514
        0x00002c54:    04020201    ....    DCD    67240449
        0x00002c58:    044aa200    ..J.    DCD    72000000
        0x00002c5c:    017d7840    @x}.    DCD    25000000
    $t
    CLK_EnableSysTick
        0x00002c60:    b530        0.      PUSH     {r4,r5,lr}
        0x00002c62:    f04f22e0    O.."    MOV      r2,#0xe000e000
        0x00002c66:    2500        .%      MOVS     r5,#0
        0x00002c68:    6115        .a      STR      r5,[r2,#0x10]
        0x00002c6a:    2804        .(      CMP      r0,#4
        0x00002c6c:    d00f        ..      BEQ      0x2c8e ; CLK_EnableSysTick + 46
        0x00002c6e:    f04f4380    O..C    MOV      r3,#0x40000000
        0x00002c72:    f8d34210    ...B    LDR      r4,[r3,#0x210]
        0x00002c76:    f0240438    $.8.    BIC      r4,r4,#0x38
        0x00002c7a:    4304        .C      ORRS     r4,r4,r0
        0x00002c7c:    f8c34210    ...B    STR      r4,[r3,#0x210]
        0x00002c80:    6151        Qa      STR      r1,[r2,#0x14]
        0x00002c82:    6195        .a      STR      r5,[r2,#0x18]
        0x00002c84:    6910        .i      LDR      r0,[r2,#0x10]
        0x00002c86:    f0400003    @...    ORR      r0,r0,#3
        0x00002c8a:    6110        .a      STR      r0,[r2,#0x10]
        0x00002c8c:    bd30        0.      POP      {r4,r5,pc}
        0x00002c8e:    6910        .i      LDR      r0,[r2,#0x10]
        0x00002c90:    f0400004    @...    ORR      r0,r0,#4
        0x00002c94:    6110        .a      STR      r0,[r2,#0x10]
        0x00002c96:    e7f3        ..      B        0x2c80 ; CLK_EnableSysTick + 32
    CLK_DisableSysTick
        0x00002c98:    f04f21e0    O..!    MOV      r1,#0xe000e000
        0x00002c9c:    2000        .       MOVS     r0,#0
        0x00002c9e:    6108        .a      STR      r0,[r1,#0x10]
        0x00002ca0:    e7b0        ..      B        0x2c04 ; CLK_DisableXtalRC + 14
    .text
    GPIO_SetMode
        0x00002ca2:    b5f0        ..      PUSH     {r4-r7,lr}
        0x00002ca4:    2300        .#      MOVS     r3,#0
        0x00002ca6:    2701        .'      MOVS     r7,#1
        0x00002ca8:    2503        .%      MOVS     r5,#3
        0x00002caa:    fa07f403    ....    LSL      r4,r7,r3
        0x00002cae:    420c        .B      TST      r4,r1
        0x00002cb0:    d009        ..      BEQ      0x2cc6 ; GPIO_SetMode + 36
        0x00002cb2:    6806        .h      LDR      r6,[r0,#0]
        0x00002cb4:    005c        \.      LSLS     r4,r3,#1
        0x00002cb6:    fa05fc04    ....    LSL      r12,r5,r4
        0x00002cba:    ea26060c    &...    BIC      r6,r6,r12
        0x00002cbe:    fa02f404    ....    LSL      r4,r2,r4
        0x00002cc2:    4326        &C      ORRS     r6,r6,r4
        0x00002cc4:    6006        .`      STR      r6,[r0,#0]
        0x00002cc6:    1c5b        [.      ADDS     r3,r3,#1
        0x00002cc8:    2b10        .+      CMP      r3,#0x10
        0x00002cca:    d3ee        ..      BCC      0x2caa ; GPIO_SetMode + 8
        0x00002ccc:    bdf0        ..      POP      {r4-r7,pc}
    GPIO_EnableInt
        0x00002cce:    b510        ..      PUSH     {r4,lr}
        0x00002cd0:    6983        .i      LDR      r3,[r0,#0x18]
        0x00002cd2:    0e14        ..      LSRS     r4,r2,#24
        0x00002cd4:    408c        .@      LSLS     r4,r4,r1
        0x00002cd6:    4323        #C      ORRS     r3,r3,r4
        0x00002cd8:    6183        .a      STR      r3,[r0,#0x18]
        0x00002cda:    69c3        .i      LDR      r3,[r0,#0x1c]
        0x00002cdc:    f022427f    "..B    BIC      r2,r2,#0xff000000
        0x00002ce0:    408a        .@      LSLS     r2,r2,r1
        0x00002ce2:    4313        .C      ORRS     r3,r3,r2
        0x00002ce4:    61c3        .a      STR      r3,[r0,#0x1c]
        0x00002ce6:    bd10        ..      POP      {r4,pc}
    GPIO_DisableInt
        0x00002ce8:    6982        .i      LDR      r2,[r0,#0x18]
        0x00002cea:    2301        .#      MOVS     r3,#1
        0x00002cec:    408b        .@      LSLS     r3,r3,r1
        0x00002cee:    439a        .C      BICS     r2,r2,r3
        0x00002cf0:    6182        .a      STR      r2,[r0,#0x18]
        0x00002cf2:    69c2        .i      LDR      r2,[r0,#0x1c]
        0x00002cf4:    f04f1301    O...    MOV      r3,#0x10001
        0x00002cf8:    408b        .@      LSLS     r3,r3,r1
        0x00002cfa:    439a        .C      BICS     r2,r2,r3
        0x00002cfc:    61c2        .a      STR      r2,[r0,#0x1c]
        0x00002cfe:    4770        pG      BX       lr
    .text
    TIMER_GetModuleClock
        0x00002d00:    b510        ..      PUSH     {r4,lr}
        0x00002d02:    b088        ..      SUB      sp,sp,#0x20
        0x00002d04:    4604        .F      MOV      r4,r0
        0x00002d06:    2220         "      MOVS     r2,#0x20
        0x00002d08:    4950        PI      LDR      r1,[pc,#320] ; [0x2e4c] = 0x34e4
        0x00002d0a:    4668        hF      MOV      r0,sp
        0x00002d0c:    f000f98c    ....    BL       __aeabi_memcpy ; 0x3028
        0x00002d10:    494f        OI      LDR      r1,[pc,#316] ; [0x2e50] = 0x40050000
        0x00002d12:    0388        ..      LSLS     r0,r1,#14
        0x00002d14:    428c        .B      CMP      r4,r1
        0x00002d16:    d104        ..      BNE      0x2d22 ; TIMER_GetModuleClock + 34
        0x00002d18:    f8d00214    ....    LDR      r0,[r0,#0x214]
        0x00002d1c:    f3c02002    ...     UBFX     r0,r0,#8,#3
        0x00002d20:    e012        ..      B        0x2d48 ; TIMER_GetModuleClock + 72
        0x00002d22:    494b        KI      LDR      r1,[pc,#300] ; [0x2e50] = 0x40050000
        0x00002d24:    3120         1      ADDS     r1,r1,#0x20
        0x00002d26:    428c        .B      CMP      r4,r1
        0x00002d28:    d104        ..      BNE      0x2d34 ; TIMER_GetModuleClock + 52
        0x00002d2a:    f8d00214    ....    LDR      r0,[r0,#0x214]
        0x00002d2e:    f3c03002    ...0    UBFX     r0,r0,#12,#3
        0x00002d32:    e009        ..      B        0x2d48 ; TIMER_GetModuleClock + 72
        0x00002d34:    4947        GI      LDR      r1,[pc,#284] ; [0x2e54] = 0x40051000
        0x00002d36:    f8d00214    ....    LDR      r0,[r0,#0x214]
        0x00002d3a:    428c        .B      CMP      r4,r1
        0x00002d3c:    d102        ..      BNE      0x2d44 ; TIMER_GetModuleClock + 68
        0x00002d3e:    f3c04002    ...@    UBFX     r0,r0,#16,#3
        0x00002d42:    e001        ..      B        0x2d48 ; TIMER_GetModuleClock + 72
        0x00002d44:    f3c05002    ...P    UBFX     r0,r0,#20,#3
        0x00002d48:    2802        .(      CMP      r0,#2
        0x00002d4a:    d003        ..      BEQ      0x2d54 ; TIMER_GetModuleClock + 84
        0x00002d4c:    f85d0020    ]. .    LDR      r0,[sp,r0,LSL #2]
        0x00002d50:    b008        ..      ADD      sp,sp,#0x20
        0x00002d52:    bd10        ..      POP      {r4,pc}
        0x00002d54:    4840        @H      LDR      r0,[pc,#256] ; [0x2e58] = 0x20000000
        0x00002d56:    6800        .h      LDR      r0,[r0,#0]
        0x00002d58:    e7fa        ..      B        0x2d50 ; TIMER_GetModuleClock + 80
    TIMER_Open
        0x00002d5a:    b570        p.      PUSH     {r4-r6,lr}
        0x00002d5c:    4616        .F      MOV      r6,r2
        0x00002d5e:    460d        .F      MOV      r5,r1
        0x00002d60:    4604        .F      MOV      r4,r0
        0x00002d62:    f7ffffcd    ....    BL       TIMER_GetModuleClock ; 0x2d00
        0x00002d66:    2300        .#      MOVS     r3,#0
        0x00002d68:    ebb60f50    ..P.    CMP      r6,r0,LSR #1
        0x00002d6c:    d901        ..      BLS      0x2d72 ; TIMER_Open + 24
        0x00002d6e:    2202        ."      MOVS     r2,#2
        0x00002d70:    e006        ..      B        0x2d80 ; TIMER_Open + 38
        0x00002d72:    fbb0f2f6    ....    UDIV     r2,r0,r6
        0x00002d76:    0e13        ..      LSRS     r3,r2,#24
        0x00002d78:    d002        ..      BEQ      0x2d80 ; TIMER_Open + 38
        0x00002d7a:    1c59        Y.      ADDS     r1,r3,#1
        0x00002d7c:    fbb2f2f1    ....    UDIV     r2,r2,r1
        0x00002d80:    431d        .C      ORRS     r5,r5,r3
        0x00002d82:    6025        %`      STR      r5,[r4,#0]
        0x00002d84:    6062        b`      STR      r2,[r4,#4]
        0x00002d86:    1c5b        [.      ADDS     r3,r3,#1
        0x00002d88:    435a        ZC      MULS     r2,r3,r2
        0x00002d8a:    fbb0f0f2    ....    UDIV     r0,r0,r2
        0x00002d8e:    bd70        p.      POP      {r4-r6,pc}
    TIMER_Close
        0x00002d90:    2100        .!      MOVS     r1,#0
        0x00002d92:    6001        .`      STR      r1,[r0,#0]
        0x00002d94:    6141        Aa      STR      r1,[r0,#0x14]
        0x00002d96:    4770        pG      BX       lr
    TIMER_Delay
        0x00002d98:    b570        p.      PUSH     {r4-r6,lr}
        0x00002d9a:    460c        .F      MOV      r4,r1
        0x00002d9c:    4605        .F      MOV      r5,r0
        0x00002d9e:    f7ffffaf    ....    BL       TIMER_GetModuleClock ; 0x2d00
        0x00002da2:    492d        -I      LDR      r1,[pc,#180] ; [0x2e58] = 0x20000000
        0x00002da4:    2200        ."      MOVS     r2,#0
        0x00002da6:    6809        .h      LDR      r1,[r1,#0]
        0x00002da8:    602a        *`      STR      r2,[r5,#0]
        0x00002daa:    fbb1f1f0    ....    UDIV     r1,r1,r0
        0x00002dae:    616a        ja      STR      r2,[r5,#0x14]
        0x00002db0:    4b2a        *K      LDR      r3,[pc,#168] ; [0x2e5c] = 0xf4240
        0x00002db2:    1c49        I.      ADDS     r1,r1,#1
        0x00002db4:    4298        .B      CMP      r0,r3
        0x00002db6:    d805        ..      BHI      0x2dc4 ; TIMER_Delay + 44
        0x00002db8:    f44f767a    O.zv    MOV      r6,#0x3e8
        0x00002dbc:    42b4        .B      CMP      r4,r6
        0x00002dbe:    d205        ..      BCS      0x2dcc ; TIMER_Delay + 52
        0x00002dc0:    4634        4F      MOV      r4,r6
        0x00002dc2:    e006        ..      B        0x2dd2 ; TIMER_Delay + 58
        0x00002dc4:    2c64        d,      CMP      r4,#0x64
        0x00002dc6:    d201        ..      BCS      0x2dcc ; TIMER_Delay + 52
        0x00002dc8:    2464        d$      MOVS     r4,#0x64
        0x00002dca:    e002        ..      B        0x2dd2 ; TIMER_Delay + 58
        0x00002dcc:    429c        .B      CMP      r4,r3
        0x00002dce:    d900        ..      BLS      0x2dd2 ; TIMER_Delay + 58
        0x00002dd0:    461c        .F      MOV      r4,r3
        0x00002dd2:    4298        .B      CMP      r0,r3
        0x00002dd4:    d808        ..      BHI      0x2de8 ; TIMER_Delay + 80
        0x00002dd6:    4b22        "K      LDR      r3,[pc,#136] ; [0x2e60] = 0x3b9aca00
        0x00002dd8:    fbb3f0f0    ....    UDIV     r0,r3,r0
        0x00002ddc:    f44f737a    O.zs    MOV      r3,#0x3e8
        0x00002de0:    435c        \C      MULS     r4,r3,r4
        0x00002de2:    fbb4f0f0    ....    UDIV     r0,r4,r0
        0x00002de6:    e007        ..      B        0x2df8 ; TIMER_Delay + 96
        0x00002de8:    fbb0f0f3    ....    UDIV     r0,r0,r3
        0x00002dec:    4360        `C      MULS     r0,r4,r0
        0x00002dee:    0e02        ..      LSRS     r2,r0,#24
        0x00002df0:    d002        ..      BEQ      0x2df8 ; TIMER_Delay + 96
        0x00002df2:    1c53        S.      ADDS     r3,r2,#1
        0x00002df4:    fbb0f0f3    ....    UDIV     r0,r0,r3
        0x00002df8:    6068        h`      STR      r0,[r5,#4]
        0x00002dfa:    f0424080    B..@    ORR      r0,r2,#0x40000000
        0x00002dfe:    6028        (`      STR      r0,[r5,#0]
        0x00002e00:    b111        ..      CBZ      r1,0x2e08 ; TIMER_Delay + 112
        0x00002e02:    bf00        ..      NOP      
        0x00002e04:    1e49        I.      SUBS     r1,r1,#1
        0x00002e06:    d1fc        ..      BNE      0x2e02 ; TIMER_Delay + 106
        0x00002e08:    6828        (h      LDR      r0,[r5,#0]
        0x00002e0a:    0180        ..      LSLS     r0,r0,#6
        0x00002e0c:    d4fc        ..      BMI      0x2e08 ; TIMER_Delay + 112
        0x00002e0e:    bd70        p.      POP      {r4-r6,pc}
    TIMER_EnableCapture
        0x00002e10:    6943        Ci      LDR      r3,[r0,#0x14]
        0x00002e12:    f0230316    #...    BIC      r3,r3,#0x16
        0x00002e16:    430b        .C      ORRS     r3,r3,r1
        0x00002e18:    4313        .C      ORRS     r3,r3,r2
        0x00002e1a:    f0430108    C...    ORR      r1,r3,#8
        0x00002e1e:    6141        Aa      STR      r1,[r0,#0x14]
        0x00002e20:    4770        pG      BX       lr
    TIMER_DisableCapture
        0x00002e22:    6941        Ai      LDR      r1,[r0,#0x14]
        0x00002e24:    f0210108    !...    BIC      r1,r1,#8
        0x00002e28:    6141        Aa      STR      r1,[r0,#0x14]
        0x00002e2a:    4770        pG      BX       lr
    TIMER_EnableEventCounter
        0x00002e2c:    6942        Bi      LDR      r2,[r0,#0x14]
        0x00002e2e:    f0220201    "...    BIC      r2,r2,#1
        0x00002e32:    430a        .C      ORRS     r2,r2,r1
        0x00002e34:    6142        Ba      STR      r2,[r0,#0x14]
        0x00002e36:    6801        .h      LDR      r1,[r0,#0]
        0x00002e38:    f0417180    A..q    ORR      r1,r1,#0x1000000
        0x00002e3c:    6001        .`      STR      r1,[r0,#0]
        0x00002e3e:    4770        pG      BX       lr
    TIMER_DisableEventCounter
        0x00002e40:    6801        .h      LDR      r1,[r0,#0]
        0x00002e42:    f0217180    !..q    BIC      r1,r1,#0x1000000
        0x00002e46:    6001        .`      STR      r1,[r0,#0]
        0x00002e48:    4770        pG      BX       lr
    $d
        0x00002e4a:    0000        ..      DCW    0
        0x00002e4c:    000034e4    .4..    DCD    13540
        0x00002e50:    40050000    ...@    DCD    1074069504
        0x00002e54:    40051000    ...@    DCD    1074073600
        0x00002e58:    20000000    ...     DCD    536870912
        0x00002e5c:    000f4240    @B..    DCD    1000000
        0x00002e60:    3b9aca00    ...;    DCD    1000000000
    $t
    .text
    Open_Seven_Segment
        0x00002e64:    b570        p.      PUSH     {r4-r6,lr}
        0x00002e66:    2201        ."      MOVS     r2,#1
        0x00002e68:    4d63        cM      LDR      r5,[pc,#396] ; [0x2ff8] = 0x40004040
        0x00002e6a:    02d4        ..      LSLS     r4,r2,#11
        0x00002e6c:    4621        !F      MOV      r1,r4
        0x00002e6e:    4628        (F      MOV      r0,r5
        0x00002e70:    f7ffff17    ....    BL       GPIO_SetMode ; 0x2ca2
        0x00002e74:    2201        ."      MOVS     r2,#1
        0x00002e76:    0311        ..      LSLS     r1,r2,#12
        0x00002e78:    4628        (F      MOV      r0,r5
        0x00002e7a:    f7ffff12    ....    BL       GPIO_SetMode ; 0x2ca2
        0x00002e7e:    2201        ."      MOVS     r2,#1
        0x00002e80:    0351        Q.      LSLS     r1,r2,#13
        0x00002e82:    4628        (F      MOV      r0,r5
        0x00002e84:    f7ffff0d    ....    BL       GPIO_SetMode ; 0x2ca2
        0x00002e88:    2201        ."      MOVS     r2,#1
        0x00002e8a:    0391        ..      LSLS     r1,r2,#14
        0x00002e8c:    4628        (F      MOV      r0,r5
        0x00002e8e:    f7ffff08    ....    BL       GPIO_SetMode ; 0x2ca2
        0x00002e92:    2201        ."      MOVS     r2,#1
        0x00002e94:    03d1        ..      LSLS     r1,r2,#15
        0x00002e96:    4628        (F      MOV      r0,r5
        0x00002e98:    f7ffff03    ....    BL       GPIO_SetMode ; 0x2ca2
        0x00002e9c:    2201        ."      MOVS     r2,#1
        0x00002e9e:    2120         !      MOVS     r1,#0x20
        0x00002ea0:    4628        (F      MOV      r0,r5
        0x00002ea2:    f7fffefe    ....    BL       GPIO_SetMode ; 0x2ca2
        0x00002ea6:    4621        !F      MOV      r1,r4
        0x00002ea8:    4c53        SL      LDR      r4,[pc,#332] ; [0x2ff8] = 0x40004040
        0x00002eaa:    2201        ."      MOVS     r2,#1
        0x00002eac:    3480        .4      ADDS     r4,r4,#0x80
        0x00002eae:    4620         F      MOV      r0,r4
        0x00002eb0:    f7fffef7    ....    BL       GPIO_SetMode ; 0x2ca2
        0x00002eb4:    2201        ."      MOVS     r2,#1
        0x00002eb6:    2104        .!      MOVS     r1,#4
        0x00002eb8:    4850        PH      LDR      r0,[pc,#320] ; [0x2ffc] = 0x40004140
        0x00002eba:    f7fffef2    ....    BL       GPIO_SetMode ; 0x2ca2
        0x00002ebe:    2201        ."      MOVS     r2,#1
        0x00002ec0:    0215        ..      LSLS     r5,r2,#8
        0x00002ec2:    4629        )F      MOV      r1,r5
        0x00002ec4:    4620         F      MOV      r0,r4
        0x00002ec6:    f7fffeec    ....    BL       GPIO_SetMode ; 0x2ca2
        0x00002eca:    484b        KH      LDR      r0,[pc,#300] ; [0x2ff8] = 0x40004040
        0x00002ecc:    2201        ."      MOVS     r2,#1
        0x00002ece:    4629        )F      MOV      r1,r5
        0x00002ed0:    3040        @0      ADDS     r0,r0,#0x40
        0x00002ed2:    f7fffee6    ....    BL       GPIO_SetMode ; 0x2ca2
        0x00002ed6:    494a        JI      LDR      r1,[pc,#296] ; [0x3000] = 0x4000486c
        0x00002ed8:    2001        .       MOVS     r0,#1
        0x00002eda:    6008        .`      STR      r0,[r1,#0]
        0x00002edc:    1d09        ..      ADDS     r1,r1,#4
        0x00002ede:    6008        .`      STR      r0,[r1,#0]
        0x00002ee0:    1d09        ..      ADDS     r1,r1,#4
        0x00002ee2:    6008        .`      STR      r0,[r1,#0]
        0x00002ee4:    1d09        ..      ADDS     r1,r1,#4
        0x00002ee6:    6008        .`      STR      r0,[r1,#0]
        0x00002ee8:    1d09        ..      ADDS     r1,r1,#4
        0x00002eea:    6008        .`      STR      r0,[r1,#0]
        0x00002eec:    4944        DI      LDR      r1,[pc,#272] ; [0x3000] = 0x4000486c
        0x00002eee:    3918        .9      SUBS     r1,r1,#0x18
        0x00002ef0:    6008        .`      STR      r0,[r1,#0]
        0x00002ef2:    4943        CI      LDR      r1,[pc,#268] ; [0x3000] = 0x4000486c
        0x00002ef4:    3180        .1      ADDS     r1,r1,#0x80
        0x00002ef6:    6008        .`      STR      r0,[r1,#0]
        0x00002ef8:    4941        AI      LDR      r1,[pc,#260] ; [0x3000] = 0x4000486c
        0x00002efa:    31dc        .1      ADDS     r1,r1,#0xdc
        0x00002efc:    6008        .`      STR      r0,[r1,#0]
        0x00002efe:    bd70        p.      POP      {r4-r6,pc}
    Show_Seven_Segment
        0x00002f00:    e92d4ff0    -..O    PUSH     {r4-r11,lr}
        0x00002f04:    4b3e        >K      LDR      r3,[pc,#248] ; [0x3000] = 0x4000486c
        0x00002f06:    f04f0901    O...    MOV      r9,#1
        0x00002f0a:    468e        .F      MOV      lr,r1
        0x00002f0c:    f8c39000    ....    STR      r9,[r3,#0]
        0x00002f10:    1d1c        ..      ADDS     r4,r3,#4
        0x00002f12:    f8c49000    ....    STR      r9,[r4,#0]
        0x00002f16:    1d22        ".      ADDS     r2,r4,#4
        0x00002f18:    f8c29000    ....    STR      r9,[r2,#0]
        0x00002f1c:    1d17        ..      ADDS     r7,r2,#4
        0x00002f1e:    f8c79000    ....    STR      r9,[r7,#0]
        0x00002f22:    f1070c04    ....    ADD      r12,r7,#4
        0x00002f26:    f8cc9000    ....    STR      r9,[r12,#0]
        0x00002f2a:    4d35        5M      LDR      r5,[pc,#212] ; [0x3000] = 0x4000486c
        0x00002f2c:    3d18        .=      SUBS     r5,r5,#0x18
        0x00002f2e:    f8c59000    ....    STR      r9,[r5,#0]
        0x00002f32:    4e33        3N      LDR      r6,[pc,#204] ; [0x3000] = 0x4000486c
        0x00002f34:    3680        .6      ADDS     r6,r6,#0x80
        0x00002f36:    f8c69000    ....    STR      r9,[r6,#0]
        0x00002f3a:    f8df80c4    ....    LDR      r8,[pc,#196] ; [0x3000] = 0x4000486c
        0x00002f3e:    f10808dc    ....    ADD      r8,r8,#0xdc
        0x00002f42:    f8c89000    ....    STR      r9,[r8,#0]
        0x00002f46:    f8dfb0b8    ....    LDR      r11,[pc,#184] ; [0x3000] = 0x4000486c
        0x00002f4a:    2100        .!      MOVS     r1,#0
        0x00002f4c:    f10b0b74    ..t.    ADD      r11,r11,#0x74
        0x00002f50:    f8cb1000    ....    STR      r1,[r11,#0]
        0x00002f54:    f8dfa0a8    ....    LDR      r10,[pc,#168] ; [0x3000] = 0x4000486c
        0x00002f58:    f10a0a34    ..4.    ADD      r10,r10,#0x34
        0x00002f5c:    f8ca1000    ....    STR      r1,[r10,#0]
        0x00002f60:    280a        .(      CMP      r0,#0xa
        0x00002f62:    d23a        :.      BCS      0x2fda ; Show_Seven_Segment + 218
        0x00002f64:    e8dff000    ....    TBB      [pc,r0]
    $d
        0x00002f68:    140e0c05    ....    DCD    336464901
        0x00002f6c:    28211e19    ..!(    DCD    673259033
        0x00002f70:    342d        -4      DCW    13357
    $t
        0x00002f72:    6019        .`      STR      r1,[r3,#0]
        0x00002f74:    6021        !`      STR      r1,[r4,#0]
        0x00002f76:    6011        .`      STR      r1,[r2,#0]
        0x00002f78:    6039        9`      STR      r1,[r7,#0]
        0x00002f7a:    f8cc1000    ....    STR      r1,[r12,#0]
        0x00002f7e:    e01e        ..      B        0x2fbe ; Show_Seven_Segment + 190
        0x00002f80:    6021        !`      STR      r1,[r4,#0]
        0x00002f82:    e00d        ..      B        0x2fa0 ; Show_Seven_Segment + 160
        0x00002f84:    6019        .`      STR      r1,[r3,#0]
        0x00002f86:    6021        !`      STR      r1,[r4,#0]
        0x00002f88:    6031        1`      STR      r1,[r6,#0]
        0x00002f8a:    f8cc1000    ....    STR      r1,[r12,#0]
        0x00002f8e:    e002        ..      B        0x2f96 ; Show_Seven_Segment + 150
        0x00002f90:    6019        .`      STR      r1,[r3,#0]
        0x00002f92:    6021        !`      STR      r1,[r4,#0]
        0x00002f94:    e00d        ..      B        0x2fb2 ; Show_Seven_Segment + 178
        0x00002f96:    6039        9`      STR      r1,[r7,#0]
        0x00002f98:    e01f        ..      B        0x2fda ; Show_Seven_Segment + 218
        0x00002f9a:    6029        )`      STR      r1,[r5,#0]
        0x00002f9c:    6021        !`      STR      r1,[r4,#0]
        0x00002f9e:    6031        1`      STR      r1,[r6,#0]
        0x00002fa0:    6011        .`      STR      r1,[r2,#0]
        0x00002fa2:    e01a        ..      B        0x2fda ; Show_Seven_Segment + 218
        0x00002fa4:    6019        .`      STR      r1,[r3,#0]
        0x00002fa6:    6029        )`      STR      r1,[r5,#0]
        0x00002fa8:    e003        ..      B        0x2fb2 ; Show_Seven_Segment + 178
        0x00002faa:    6019        .`      STR      r1,[r3,#0]
        0x00002fac:    6029        )`      STR      r1,[r5,#0]
        0x00002fae:    f8cc1000    ....    STR      r1,[r12,#0]
        0x00002fb2:    6031        1`      STR      r1,[r6,#0]
        0x00002fb4:    6011        .`      STR      r1,[r2,#0]
        0x00002fb6:    e7ee        ..      B        0x2f96 ; Show_Seven_Segment + 150
        0x00002fb8:    6019        .`      STR      r1,[r3,#0]
        0x00002fba:    6021        !`      STR      r1,[r4,#0]
        0x00002fbc:    6011        .`      STR      r1,[r2,#0]
        0x00002fbe:    6029        )`      STR      r1,[r5,#0]
        0x00002fc0:    e00b        ..      B        0x2fda ; Show_Seven_Segment + 218
        0x00002fc2:    6019        .`      STR      r1,[r3,#0]
        0x00002fc4:    6021        !`      STR      r1,[r4,#0]
        0x00002fc6:    6011        .`      STR      r1,[r2,#0]
        0x00002fc8:    6039        9`      STR      r1,[r7,#0]
        0x00002fca:    f8cc1000    ....    STR      r1,[r12,#0]
        0x00002fce:    e002        ..      B        0x2fd6 ; Show_Seven_Segment + 214
        0x00002fd0:    6019        .`      STR      r1,[r3,#0]
        0x00002fd2:    6021        !`      STR      r1,[r4,#0]
        0x00002fd4:    6011        .`      STR      r1,[r2,#0]
        0x00002fd6:    6029        )`      STR      r1,[r5,#0]
        0x00002fd8:    6031        1`      STR      r1,[r6,#0]
        0x00002fda:    f1be0f01    ....    CMP      lr,#1
        0x00002fde:    d007        ..      BEQ      0x2ff0 ; Show_Seven_Segment + 240
        0x00002fe0:    f1be0f02    ....    CMP      lr,#2
        0x00002fe4:    d102        ..      BNE      0x2fec ; Show_Seven_Segment + 236
        0x00002fe6:    4648        HF      MOV      r0,r9
        0x00002fe8:    4651        QF      MOV      r1,r10
        0x00002fea:    6008        .`      STR      r0,[r1,#0]
        0x00002fec:    e8bd8ff0    ....    POP      {r4-r11,pc}
        0x00002ff0:    4648        HF      MOV      r0,r9
        0x00002ff2:    4659        YF      MOV      r1,r11
        0x00002ff4:    e7f9        ..      B        0x2fea ; Show_Seven_Segment + 234
    $d
        0x00002ff6:    0000        ..      DCW    0
        0x00002ff8:    40004040    @@.@    DCD    1073758272
        0x00002ffc:    40004140    @A.@    DCD    1073758528
        0x00003000:    4000486c    lH.@    DCD    1073760364
    $t
    .text
    rand
        0x00003004:    4906        .I      LDR      r1,[pc,#24] ; [0x3020] = 0x200000f0
        0x00003006:    4a07        .J      LDR      r2,[pc,#28] ; [0x3024] = 0x41c64e6d
        0x00003008:    6808        .h      LDR      r0,[r1,#0]
        0x0000300a:    4350        PC      MULS     r0,r2,r0
        0x0000300c:    f2430239    C.9.    MOV      r2,#0x3039
        0x00003010:    4410        .D      ADD      r0,r0,r2
        0x00003012:    6008        .`      STR      r0,[r1,#0]
        0x00003014:    0840        @.      LSRS     r0,r0,#1
        0x00003016:    4770        pG      BX       lr
    srand
        0x00003018:    4901        .I      LDR      r1,[pc,#4] ; [0x3020] = 0x200000f0
        0x0000301a:    6008        .`      STR      r0,[r1,#0]
        0x0000301c:    4770        pG      BX       lr
    $d
        0x0000301e:    0000        ..      DCW    0
        0x00003020:    200000f0    ...     DCD    536871152
        0x00003024:    41c64e6d    mN.A    DCD    1103515245
    $t
    .text
    __aeabi_memcpy
    __aeabi_memcpy4
    __aeabi_memcpy8
        0x00003028:    ea400301    @...    ORR      r3,r0,r1
        0x0000302c:    079b        ..      LSLS     r3,r3,#30
        0x0000302e:    d003        ..      BEQ      0x3038 ; __aeabi_memcpy + 16
        0x00003030:    e009        ..      B        0x3046 ; __aeabi_memcpy + 30
        0x00003032:    c908        ..      LDM      r1!,{r3}
        0x00003034:    1f12        ..      SUBS     r2,r2,#4
        0x00003036:    c008        ..      STM      r0!,{r3}
        0x00003038:    2a04        .*      CMP      r2,#4
        0x0000303a:    d2fa        ..      BCS      0x3032 ; __aeabi_memcpy + 10
        0x0000303c:    e003        ..      B        0x3046 ; __aeabi_memcpy + 30
        0x0000303e:    f8113b01    ...;    LDRB     r3,[r1],#1
        0x00003042:    f8003b01    ...;    STRB     r3,[r0],#1
        0x00003046:    1e52        R.      SUBS     r2,r2,#1
        0x00003048:    d2f9        ..      BCS      0x303e ; __aeabi_memcpy + 22
        0x0000304a:    4770        pG      BX       lr
    .text
    __aeabi_memset
    __aeabi_memset4
    __aeabi_memset8
        0x0000304c:    b2d2        ..      UXTB     r2,r2
        0x0000304e:    e001        ..      B        0x3054 ; __aeabi_memset + 8
        0x00003050:    f8002b01    ...+    STRB     r2,[r0],#1
        0x00003054:    1e49        I.      SUBS     r1,r1,#1
        0x00003056:    d2fb        ..      BCS      0x3050 ; __aeabi_memset + 4
        0x00003058:    4770        pG      BX       lr
    __aeabi_memclr
    __aeabi_memclr4
    __aeabi_memclr8
        0x0000305a:    2200        ."      MOVS     r2,#0
        0x0000305c:    e7f6        ..      B        __aeabi_memset ; 0x304c
    _memset$wrapper
        0x0000305e:    b510        ..      PUSH     {r4,lr}
        0x00003060:    4613        .F      MOV      r3,r2
        0x00003062:    460a        .F      MOV      r2,r1
        0x00003064:    4604        .F      MOV      r4,r0
        0x00003066:    4619        .F      MOV      r1,r3
        0x00003068:    f7fffff0    ....    BL       __aeabi_memset ; 0x304c
        0x0000306c:    4620         F      MOV      r0,r4
        0x0000306e:    bd10        ..      POP      {r4,pc}
    .text
    strcat
        0x00003070:    1e42        B.      SUBS     r2,r0,#1
        0x00003072:    f8123f01    ...?    LDRB     r3,[r2,#1]!
        0x00003076:    2b00        .+      CMP      r3,#0
        0x00003078:    d1fb        ..      BNE      0x3072 ; strcat + 2
        0x0000307a:    f8113b01    ...;    LDRB     r3,[r1],#1
        0x0000307e:    f8023b01    ...;    STRB     r3,[r2],#1
        0x00003082:    2b00        .+      CMP      r3,#0
        0x00003084:    d1f9        ..      BNE      0x307a ; strcat + 10
        0x00003086:    4770        pG      BX       lr
    .text
    strncpy
        0x00003088:    b510        ..      PUSH     {r4,lr}
        0x0000308a:    4604        .F      MOV      r4,r0
        0x0000308c:    e004        ..      B        0x3098 ; strncpy + 16
        0x0000308e:    780b        .x      LDRB     r3,[r1,#0]
        0x00003090:    f8003b01    ...;    STRB     r3,[r0],#1
        0x00003094:    b103        ..      CBZ      r3,0x3098 ; strncpy + 16
        0x00003096:    1c49        I.      ADDS     r1,r1,#1
        0x00003098:    1e52        R.      SUBS     r2,r2,#1
        0x0000309a:    d2f8        ..      BCS      0x308e ; strncpy + 6
        0x0000309c:    4620         F      MOV      r0,r4
        0x0000309e:    bd10        ..      POP      {r4,pc}
    .text
    __aeabi_uldivmod
        0x000030a0:    e92d5ff0    -.._    PUSH     {r4-r12,lr}
        0x000030a4:    4605        .F      MOV      r5,r0
        0x000030a6:    2000        .       MOVS     r0,#0
        0x000030a8:    4692        .F      MOV      r10,r2
        0x000030aa:    469b        .F      MOV      r11,r3
        0x000030ac:    4688        .F      MOV      r8,r1
        0x000030ae:    4606        .F      MOV      r6,r0
        0x000030b0:    4681        .F      MOV      r9,r0
        0x000030b2:    2440        @$      MOVS     r4,#0x40
        0x000030b4:    e01b        ..      B        0x30ee ; __aeabi_uldivmod + 78
        0x000030b6:    4628        (F      MOV      r0,r5
        0x000030b8:    4641        AF      MOV      r1,r8
        0x000030ba:    4647        GF      MOV      r7,r8
        0x000030bc:    4622        "F      MOV      r2,r4
        0x000030be:    f000f842    ..B.    BL       __aeabi_llsr ; 0x3146
        0x000030c2:    4653        SF      MOV      r3,r10
        0x000030c4:    465a        ZF      MOV      r2,r11
        0x000030c6:    1ac0        ..      SUBS     r0,r0,r3
        0x000030c8:    4191        .A      SBCS     r1,r1,r2
        0x000030ca:    d310        ..      BCC      0x30ee ; __aeabi_uldivmod + 78
        0x000030cc:    4611        .F      MOV      r1,r2
        0x000030ce:    4618        .F      MOV      r0,r3
        0x000030d0:    4622        "F      MOV      r2,r4
        0x000030d2:    f000f829    ..).    BL       __aeabi_llsl ; 0x3128
        0x000030d6:    1a2d        -.      SUBS     r5,r5,r0
        0x000030d8:    eb670801    g...    SBC      r8,r7,r1
        0x000030dc:    464f        OF      MOV      r7,r9
        0x000030de:    4622        "F      MOV      r2,r4
        0x000030e0:    2001        .       MOVS     r0,#1
        0x000030e2:    2100        .!      MOVS     r1,#0
        0x000030e4:    f000f820    .. .    BL       __aeabi_llsl ; 0x3128
        0x000030e8:    eb170900    ....    ADDS     r9,r7,r0
        0x000030ec:    414e        NA      ADCS     r6,r6,r1
        0x000030ee:    1e20         .      SUBS     r0,r4,#0
        0x000030f0:    f1a40401    ....    SUB      r4,r4,#1
        0x000030f4:    dcdf        ..      BGT      0x30b6 ; __aeabi_uldivmod + 22
        0x000030f6:    4648        HF      MOV      r0,r9
        0x000030f8:    4631        1F      MOV      r1,r6
        0x000030fa:    462a        *F      MOV      r2,r5
        0x000030fc:    4643        CF      MOV      r3,r8
        0x000030fe:    e8bd9ff0    ....    POP      {r4-r12,pc}
        0x00003102:    0000        ..      MOVS     r0,r0
    .text
    __scatterload
    __scatterload_rt2
        0x00003104:    4c06        .L      LDR      r4,[pc,#24] ; [0x3120] = 0x3510
        0x00003106:    4d07        .M      LDR      r5,[pc,#28] ; [0x3124] = 0x3530
        0x00003108:    e006        ..      B        0x3118 ; __scatterload + 20
        0x0000310a:    68e0        .h      LDR      r0,[r4,#0xc]
        0x0000310c:    f0400301    @...    ORR      r3,r0,#1
        0x00003110:    e8940007    ....    LDM      r4,{r0-r2}
        0x00003114:    4798        .G      BLX      r3
        0x00003116:    3410        .4      ADDS     r4,r4,#0x10
        0x00003118:    42ac        .B      CMP      r4,r5
        0x0000311a:    d3f6        ..      BCC      0x310a ; __scatterload + 6
        0x0000311c:    f7fdf814    ....    BL       __main_after_scatterload ; 0x148
    $d
        0x00003120:    00003510    .5..    DCD    13584
        0x00003124:    00003530    05..    DCD    13616
    $t
    .text
    __aeabi_llsl
    _ll_shift_l
        0x00003128:    2a20         *      CMP      r2,#0x20
        0x0000312a:    db04        ..      BLT      0x3136 ; __aeabi_llsl + 14
        0x0000312c:    3a20         :      SUBS     r2,r2,#0x20
        0x0000312e:    fa00f102    ....    LSL      r1,r0,r2
        0x00003132:    2000        .       MOVS     r0,#0
        0x00003134:    4770        pG      BX       lr
        0x00003136:    4091        .@      LSLS     r1,r1,r2
        0x00003138:    f1c20320    .. .    RSB      r3,r2,#0x20
        0x0000313c:    fa20f303     ...    LSR      r3,r0,r3
        0x00003140:    4319        .C      ORRS     r1,r1,r3
        0x00003142:    4090        .@      LSLS     r0,r0,r2
        0x00003144:    4770        pG      BX       lr
    .text
    __aeabi_llsr
    _ll_ushift_r
        0x00003146:    2a20         *      CMP      r2,#0x20
        0x00003148:    db04        ..      BLT      0x3154 ; __aeabi_llsr + 14
        0x0000314a:    3a20         :      SUBS     r2,r2,#0x20
        0x0000314c:    fa21f002    !...    LSR      r0,r1,r2
        0x00003150:    2100        .!      MOVS     r1,#0
        0x00003152:    4770        pG      BX       lr
        0x00003154:    fa21f302    !...    LSR      r3,r1,r2
        0x00003158:    40d0        .@      LSRS     r0,r0,r2
        0x0000315a:    f1c20220    .. .    RSB      r2,r2,#0x20
        0x0000315e:    4091        .@      LSLS     r1,r1,r2
        0x00003160:    4308        .C      ORRS     r0,r0,r1
        0x00003162:    4619        .F      MOV      r1,r3
        0x00003164:    4770        pG      BX       lr
        0x00003166:    0000        ..      MOVS     r0,r0
    i.__0printf$5
    __0printf$5
    __1printf$5
    __2printf
        0x00003168:    b40f        ..      PUSH     {r0-r3}
        0x0000316a:    4b05        .K      LDR      r3,[pc,#20] ; [0x3180] = 0x23a9
        0x0000316c:    b510        ..      PUSH     {r4,lr}
        0x0000316e:    a903        ..      ADD      r1,sp,#0xc
        0x00003170:    4a04        .J      LDR      r2,[pc,#16] ; [0x3184] = 0x200000ec
        0x00003172:    9802        ..      LDR      r0,[sp,#8]
        0x00003174:    f000f82c    ..,.    BL       _printf_core ; 0x31d0
        0x00003178:    bc10        ..      POP      {r4}
        0x0000317a:    f85dfb14    ]...    LDR      pc,[sp],#0x14
    $d
        0x0000317e:    0000        ..      DCW    0
        0x00003180:    000023a9    .#..    DCD    9129
        0x00003184:    200000ec    ...     DCD    536871148
    $t
    i.__0sprintf$5
    __0sprintf$5
    __1sprintf$5
    __2sprintf
        0x00003188:    b40f        ..      PUSH     {r0-r3}
        0x0000318a:    4b08        .K      LDR      r3,[pc,#32] ; [0x31ac] = 0x3491
        0x0000318c:    b510        ..      PUSH     {r4,lr}
        0x0000318e:    a904        ..      ADD      r1,sp,#0x10
        0x00003190:    aa02        ..      ADD      r2,sp,#8
        0x00003192:    9803        ..      LDR      r0,[sp,#0xc]
        0x00003194:    f000f81c    ....    BL       _printf_core ; 0x31d0
        0x00003198:    4604        .F      MOV      r4,r0
        0x0000319a:    a902        ..      ADD      r1,sp,#8
        0x0000319c:    2000        .       MOVS     r0,#0
        0x0000319e:    f000f977    ..w.    BL       _sputc ; 0x3490
        0x000031a2:    4620         F      MOV      r0,r4
        0x000031a4:    bc10        ..      POP      {r4}
        0x000031a6:    f85dfb14    ]...    LDR      pc,[sp],#0x14
    $d
        0x000031aa:    0000        ..      DCW    0
        0x000031ac:    00003491    .4..    DCD    13457
    $t
    i.__scatterload_copy
    __scatterload_copy
        0x000031b0:    e002        ..      B        0x31b8 ; __scatterload_copy + 8
        0x000031b2:    c808        ..      LDM      r0!,{r3}
        0x000031b4:    1f12        ..      SUBS     r2,r2,#4
        0x000031b6:    c108        ..      STM      r1!,{r3}
        0x000031b8:    2a00        .*      CMP      r2,#0
        0x000031ba:    d1fa        ..      BNE      0x31b2 ; __scatterload_copy + 2
        0x000031bc:    4770        pG      BX       lr
    i.__scatterload_null
    __scatterload_null
        0x000031be:    4770        pG      BX       lr
    i.__scatterload_zeroinit
    __scatterload_zeroinit
        0x000031c0:    2000        .       MOVS     r0,#0
        0x000031c2:    e001        ..      B        0x31c8 ; __scatterload_zeroinit + 8
        0x000031c4:    c101        ..      STM      r1!,{r0}
        0x000031c6:    1f12        ..      SUBS     r2,r2,#4
        0x000031c8:    2a00        .*      CMP      r2,#0
        0x000031ca:    d1fb        ..      BNE      0x31c4 ; __scatterload_zeroinit + 4
        0x000031cc:    4770        pG      BX       lr
        0x000031ce:    0000        ..      MOVS     r0,r0
    i._printf_core
    _printf_core
        0x000031d0:    e92d4fff    -..O    PUSH     {r0-r11,lr}
        0x000031d4:    b08d        ..      SUB      sp,sp,#0x34
        0x000031d6:    469b        .F      MOV      r11,r3
        0x000031d8:    460f        .F      MOV      r7,r1
        0x000031da:    4604        .F      MOV      r4,r0
        0x000031dc:    2600        .&      MOVS     r6,#0
        0x000031de:    e006        ..      B        0x31ee ; _printf_core + 30
        0x000031e0:    2825        %(      CMP      r0,#0x25
        0x000031e2:    d00b        ..      BEQ      0x31fc ; _printf_core + 44
        0x000031e4:    465a        ZF      MOV      r2,r11
        0x000031e6:    990f        ..      LDR      r1,[sp,#0x3c]
        0x000031e8:    4790        .G      BLX      r2
        0x000031ea:    1c64        d.      ADDS     r4,r4,#1
        0x000031ec:    1c76        v.      ADDS     r6,r6,#1
        0x000031ee:    7820         x      LDRB     r0,[r4,#0]
        0x000031f0:    2800        .(      CMP      r0,#0
        0x000031f2:    d1f5        ..      BNE      0x31e0 ; _printf_core + 16
        0x000031f4:    b011        ..      ADD      sp,sp,#0x44
        0x000031f6:    4630        0F      MOV      r0,r6
        0x000031f8:    e8bd8ff0    ....    POP      {r4-r11,pc}
        0x000031fc:    2500        .%      MOVS     r5,#0
        0x000031fe:    46a8        .F      MOV      r8,r5
        0x00003200:    2201        ."      MOVS     r2,#1
        0x00003202:    4998        .I      LDR      r1,[pc,#608] ; [0x3464] = 0x12809
        0x00003204:    e000        ..      B        0x3208 ; _printf_core + 56
        0x00003206:    4305        .C      ORRS     r5,r5,r0
        0x00003208:    f8143f01    ...?    LDRB     r3,[r4,#1]!
        0x0000320c:    3b20         ;      SUBS     r3,r3,#0x20
        0x0000320e:    fa02f003    ....    LSL      r0,r2,r3
        0x00003212:    4208        .B      TST      r0,r1
        0x00003214:    d1f7        ..      BNE      0x3206 ; _printf_core + 54
        0x00003216:    7820         x      LDRB     r0,[r4,#0]
        0x00003218:    282e        .(      CMP      r0,#0x2e
        0x0000321a:    d117        ..      BNE      0x324c ; _printf_core + 124
        0x0000321c:    f8140f01    ....    LDRB     r0,[r4,#1]!
        0x00003220:    f0450504    E...    ORR      r5,r5,#4
        0x00003224:    282a        *(      CMP      r0,#0x2a
        0x00003226:    d00e        ..      BEQ      0x3246 ; _printf_core + 118
        0x00003228:    f06f022f    o./.    MVN      r2,#0x2f
        0x0000322c:    7820         x      LDRB     r0,[r4,#0]
        0x0000322e:    f1a00130    ..0.    SUB      r1,r0,#0x30
        0x00003232:    2909        .)      CMP      r1,#9
        0x00003234:    d80a        ..      BHI      0x324c ; _printf_core + 124
        0x00003236:    eb080188    ....    ADD      r1,r8,r8,LSL #2
        0x0000323a:    eb020141    ..A.    ADD      r1,r2,r1,LSL #1
        0x0000323e:    eb000801    ....    ADD      r8,r0,r1
        0x00003242:    1c64        d.      ADDS     r4,r4,#1
        0x00003244:    e7f2        ..      B        0x322c ; _printf_core + 92
        0x00003246:    f8578b04    W...    LDR      r8,[r7],#4
        0x0000324a:    1c64        d.      ADDS     r4,r4,#1
        0x0000324c:    7820         x      LDRB     r0,[r4,#0]
        0x0000324e:    286c        l(      CMP      r0,#0x6c
        0x00003250:    d00d        ..      BEQ      0x326e ; _printf_core + 158
        0x00003252:    dc04        ..      BGT      0x325e ; _printf_core + 142
        0x00003254:    284c        L(      CMP      r0,#0x4c
        0x00003256:    d012        ..      BEQ      0x327e ; _printf_core + 174
        0x00003258:    286a        j(      CMP      r0,#0x6a
        0x0000325a:    d111        ..      BNE      0x3280 ; _printf_core + 176
        0x0000325c:    e004        ..      B        0x3268 ; _printf_core + 152
        0x0000325e:    2874        t(      CMP      r0,#0x74
        0x00003260:    d00d        ..      BEQ      0x327e ; _printf_core + 174
        0x00003262:    287a        z(      CMP      r0,#0x7a
        0x00003264:    d10c        ..      BNE      0x3280 ; _printf_core + 176
        0x00003266:    e00a        ..      B        0x327e ; _printf_core + 174
        0x00003268:    f4451500    E...    ORR      r5,r5,#0x200000
        0x0000326c:    e007        ..      B        0x327e ; _printf_core + 174
        0x0000326e:    7861        ax      LDRB     r1,[r4,#1]
        0x00003270:    f4451580    E...    ORR      r5,r5,#0x100000
        0x00003274:    4281        .B      CMP      r1,r0
        0x00003276:    d102        ..      BNE      0x327e ; _printf_core + 174
        0x00003278:    1c64        d.      ADDS     r4,r4,#1
        0x0000327a:    f5051580    ....    ADD      r5,r5,#0x100000
        0x0000327e:    1c64        d.      ADDS     r4,r4,#1
        0x00003280:    7820         x      LDRB     r0,[r4,#0]
        0x00003282:    2869        i(      CMP      r0,#0x69
        0x00003284:    d044        D.      BEQ      0x3310 ; _printf_core + 320
        0x00003286:    dc08        ..      BGT      0x329a ; _printf_core + 202
        0x00003288:    2800        .(      CMP      r0,#0
        0x0000328a:    d0b3        ..      BEQ      0x31f4 ; _printf_core + 36
        0x0000328c:    2858        X(      CMP      r0,#0x58
        0x0000328e:    d067        g.      BEQ      0x3360 ; _printf_core + 400
        0x00003290:    2863        c(      CMP      r0,#0x63
        0x00003292:    d00f        ..      BEQ      0x32b4 ; _printf_core + 228
        0x00003294:    2864        d(      CMP      r0,#0x64
        0x00003296:    d108        ..      BNE      0x32aa ; _printf_core + 218
        0x00003298:    e03a        :.      B        0x3310 ; _printf_core + 320
        0x0000329a:    2870        p(      CMP      r0,#0x70
        0x0000329c:    d065        e.      BEQ      0x336a ; _printf_core + 410
        0x0000329e:    2873        s(      CMP      r0,#0x73
        0x000032a0:    d012        ..      BEQ      0x32c8 ; _printf_core + 248
        0x000032a2:    2875        u(      CMP      r0,#0x75
        0x000032a4:    d05a        Z.      BEQ      0x335c ; _printf_core + 396
        0x000032a6:    2878        x(      CMP      r0,#0x78
        0x000032a8:    d05a        Z.      BEQ      0x3360 ; _printf_core + 400
        0x000032aa:    465a        ZF      MOV      r2,r11
        0x000032ac:    990f        ..      LDR      r1,[sp,#0x3c]
        0x000032ae:    4790        .G      BLX      r2
        0x000032b0:    1c76        v.      ADDS     r6,r6,#1
        0x000032b2:    e0d5        ..      B        0x3460 ; _printf_core + 656
        0x000032b4:    f8170b04    ....    LDRB     r0,[r7],#4
        0x000032b8:    f88d0000    ....    STRB     r0,[sp,#0]
        0x000032bc:    2000        .       MOVS     r0,#0
        0x000032be:    f88d0001    ....    STRB     r0,[sp,#1]
        0x000032c2:    46e9        .F      MOV      r9,sp
        0x000032c4:    2001        .       MOVS     r0,#1
        0x000032c6:    e003        ..      B        0x32d0 ; _printf_core + 256
        0x000032c8:    f8579b04    W...    LDR      r9,[r7],#4
        0x000032cc:    f04f30ff    O..0    MOV      r0,#0xffffffff
        0x000032d0:    0769        i.      LSLS     r1,r5,#29
        0x000032d2:    f04f0500    O...    MOV      r5,#0
        0x000032d6:    d401        ..      BMI      0x32dc ; _printf_core + 268
        0x000032d8:    e00a        ..      B        0x32f0 ; _printf_core + 288
        0x000032da:    1c6d        m.      ADDS     r5,r5,#1
        0x000032dc:    4545        EE      CMP      r5,r8
        0x000032de:    da0d        ..      BGE      0x32fc ; _printf_core + 300
        0x000032e0:    4285        .B      CMP      r5,r0
        0x000032e2:    dbfa        ..      BLT      0x32da ; _printf_core + 266
        0x000032e4:    f8191005    ....    LDRB     r1,[r9,r5]
        0x000032e8:    2900        .)      CMP      r1,#0
        0x000032ea:    d1f6        ..      BNE      0x32da ; _printf_core + 266
        0x000032ec:    e006        ..      B        0x32fc ; _printf_core + 300
        0x000032ee:    1c6d        m.      ADDS     r5,r5,#1
        0x000032f0:    4285        .B      CMP      r5,r0
        0x000032f2:    dbfc        ..      BLT      0x32ee ; _printf_core + 286
        0x000032f4:    f8191005    ....    LDRB     r1,[r9,r5]
        0x000032f8:    2900        .)      CMP      r1,#0
        0x000032fa:    d1f8        ..      BNE      0x32ee ; _printf_core + 286
        0x000032fc:    442e        .D      ADD      r6,r6,r5
        0x000032fe:    e004        ..      B        0x330a ; _printf_core + 314
        0x00003300:    f8190b01    ....    LDRB     r0,[r9],#1
        0x00003304:    465a        ZF      MOV      r2,r11
        0x00003306:    990f        ..      LDR      r1,[sp,#0x3c]
        0x00003308:    4790        .G      BLX      r2
        0x0000330a:    1e6d        m.      SUBS     r5,r5,#1
        0x0000330c:    d2f8        ..      BCS      0x3300 ; _printf_core + 304
        0x0000330e:    e0a7        ..      B        0x3460 ; _printf_core + 656
        0x00003310:    200a        .       MOVS     r0,#0xa
        0x00003312:    2100        .!      MOVS     r1,#0
        0x00003314:    e9cd0108    ....    STRD     r0,r1,[sp,#0x20]
        0x00003318:    f3c55002    ...P    UBFX     r0,r5,#20,#3
        0x0000331c:    2802        .(      CMP      r0,#2
        0x0000331e:    d00c        ..      BEQ      0x333a ; _printf_core + 362
        0x00003320:    cf01        ..      LDM      r7!,{r0}
        0x00003322:    17c1        ..      ASRS     r1,r0,#31
        0x00003324:    1e02        ..      SUBS     r2,r0,#0
        0x00003326:    f1710200    q...    SBCS     r2,r1,#0
        0x0000332a:    da0c        ..      BGE      0x3346 ; _printf_core + 374
        0x0000332c:    2300        .#      MOVS     r3,#0
        0x0000332e:    ebd00003    ....    RSBS     r0,r0,r3
        0x00003332:    eb630101    c...    SBC      r1,r3,r1
        0x00003336:    222d        -"      MOVS     r2,#0x2d
        0x00003338:    e008        ..      B        0x334c ; _printf_core + 380
        0x0000333a:    1dff        ..      ADDS     r7,r7,#7
        0x0000333c:    f0270707    '...    BIC      r7,r7,#7
        0x00003340:    e8f70102    ....    LDRD     r0,r1,[r7],#8
        0x00003344:    e7ee        ..      B        0x3324 ; _printf_core + 340
        0x00003346:    052a        *.      LSLS     r2,r5,#20
        0x00003348:    d504        ..      BPL      0x3354 ; _printf_core + 388
        0x0000334a:    222b        +"      MOVS     r2,#0x2b
        0x0000334c:    f88d2028    ..(     STRB     r2,[sp,#0x28]
        0x00003350:    2201        ."      MOVS     r2,#1
        0x00003352:    e03c        <.      B        0x33ce ; _printf_core + 510
        0x00003354:    07ea        ..      LSLS     r2,r5,#31
        0x00003356:    d03a        :.      BEQ      0x33ce ; _printf_core + 510
        0x00003358:    2220         "      MOVS     r2,#0x20
        0x0000335a:    e7f7        ..      B        0x334c ; _printf_core + 380
        0x0000335c:    200a        .       MOVS     r0,#0xa
        0x0000335e:    e000        ..      B        0x3362 ; _printf_core + 402
        0x00003360:    2010        .       MOVS     r0,#0x10
        0x00003362:    2100        .!      MOVS     r1,#0
        0x00003364:    e9cd0108    ....    STRD     r0,r1,[sp,#0x20]
        0x00003368:    e007        ..      B        0x337a ; _printf_core + 426
        0x0000336a:    2010        .       MOVS     r0,#0x10
        0x0000336c:    2100        .!      MOVS     r1,#0
        0x0000336e:    f0450504    E...    ORR      r5,r5,#4
        0x00003372:    e9cd0108    ....    STRD     r0,r1,[sp,#0x20]
        0x00003376:    f04f0808    O...    MOV      r8,#8
        0x0000337a:    f3c55002    ...P    UBFX     r0,r5,#20,#3
        0x0000337e:    2802        .(      CMP      r0,#2
        0x00003380:    d010        ..      BEQ      0x33a4 ; _printf_core + 468
        0x00003382:    cf01        ..      LDM      r7!,{r0}
        0x00003384:    2100        .!      MOVS     r1,#0
        0x00003386:    f04f0a00    O...    MOV      r10,#0
        0x0000338a:    072a        *.      LSLS     r2,r5,#28
        0x0000338c:    d520         .      BPL      0x33d0 ; _printf_core + 512
        0x0000338e:    7822        "x      LDRB     r2,[r4,#0]
        0x00003390:    2a70        p*      CMP      r2,#0x70
        0x00003392:    d00d        ..      BEQ      0x33b0 ; _printf_core + 480
        0x00003394:    e9ddc308    ....    LDRD     r12,r3,[sp,#0x20]
        0x00003398:    f08c0c10    ....    EOR      r12,r12,#0x10
        0x0000339c:    ea5c0c03    \...    ORRS     r12,r12,r3
        0x000033a0:    d00c        ..      BEQ      0x33bc ; _printf_core + 492
        0x000033a2:    e015        ..      B        0x33d0 ; _printf_core + 512
        0x000033a4:    1dff        ..      ADDS     r7,r7,#7
        0x000033a6:    f0270707    '...    BIC      r7,r7,#7
        0x000033aa:    e8f70102    ....    LDRD     r0,r1,[r7],#8
        0x000033ae:    e7ea        ..      B        0x3386 ; _printf_core + 438
        0x000033b0:    2240        @"      MOVS     r2,#0x40
        0x000033b2:    f88d2028    ..(     STRB     r2,[sp,#0x28]
        0x000033b6:    f04f0a01    O...    MOV      r10,#1
        0x000033ba:    e00c        ..      B        0x33d6 ; _printf_core + 518
        0x000033bc:    ea500301    P...    ORRS     r3,r0,r1
        0x000033c0:    d006        ..      BEQ      0x33d0 ; _printf_core + 512
        0x000033c2:    2330        0#      MOVS     r3,#0x30
        0x000033c4:    f88d3028    ..(0    STRB     r3,[sp,#0x28]
        0x000033c8:    f88d2029    ..)     STRB     r2,[sp,#0x29]
        0x000033cc:    2202        ."      MOVS     r2,#2
        0x000033ce:    4692        .F      MOV      r10,r2
        0x000033d0:    7822        "x      LDRB     r2,[r4,#0]
        0x000033d2:    2a58        X*      CMP      r2,#0x58
        0x000033d4:    d004        ..      BEQ      0x33e0 ; _printf_core + 528
        0x000033d6:    a224        $.      ADR      r2,{pc}+0x92 ; 0x3468
        0x000033d8:    f10d0920    .. .    ADD      r9,sp,#0x20
        0x000033dc:    920b        ..      STR      r2,[sp,#0x2c]
        0x000033de:    e009        ..      B        0x33f4 ; _printf_core + 548
        0x000033e0:    a226        &.      ADR      r2,{pc}+0x9c ; 0x347c
        0x000033e2:    e7f9        ..      B        0x33d8 ; _printf_core + 520
        0x000033e4:    e9dd2308    ...#    LDRD     r2,r3,[sp,#0x20]
        0x000033e8:    f7fffe5a    ..Z.    BL       __aeabi_uldivmod ; 0x30a0
        0x000033ec:    9b0b        ..      LDR      r3,[sp,#0x2c]
        0x000033ee:    5c9b        .\      LDRB     r3,[r3,r2]
        0x000033f0:    f8093d01    ...=    STRB     r3,[r9,#-1]!
        0x000033f4:    ea500201    P...    ORRS     r2,r0,r1
        0x000033f8:    d1f4        ..      BNE      0x33e4 ; _printf_core + 532
        0x000033fa:    ebad0009    ....    SUB      r0,sp,r9
        0x000033fe:    3020         0      ADDS     r0,r0,#0x20
        0x00003400:    9008        ..      STR      r0,[sp,#0x20]
        0x00003402:    0768        h.      LSLS     r0,r5,#29
        0x00003404:    d401        ..      BMI      0x340a ; _printf_core + 570
        0x00003406:    f04f0801    O...    MOV      r8,#1
        0x0000340a:    9908        ..      LDR      r1,[sp,#0x20]
        0x0000340c:    4588        .E      CMP      r8,r1
        0x0000340e:    dd03        ..      BLE      0x3418 ; _printf_core + 584
        0x00003410:    9808        ..      LDR      r0,[sp,#0x20]
        0x00003412:    eba80000    ....    SUB      r0,r8,r0
        0x00003416:    e000        ..      B        0x341a ; _printf_core + 586
        0x00003418:    2000        .       MOVS     r0,#0
        0x0000341a:    4680        .F      MOV      r8,r0
        0x0000341c:    2500        .%      MOVS     r5,#0
        0x0000341e:    e006        ..      B        0x342e ; _printf_core + 606
        0x00003420:    a80a        ..      ADD      r0,sp,#0x28
        0x00003422:    465a        ZF      MOV      r2,r11
        0x00003424:    5d40        @]      LDRB     r0,[r0,r5]
        0x00003426:    990f        ..      LDR      r1,[sp,#0x3c]
        0x00003428:    4790        .G      BLX      r2
        0x0000342a:    1c6d        m.      ADDS     r5,r5,#1
        0x0000342c:    1c76        v.      ADDS     r6,r6,#1
        0x0000342e:    4555        UE      CMP      r5,r10
        0x00003430:    dbf6        ..      BLT      0x3420 ; _printf_core + 592
        0x00003432:    e004        ..      B        0x343e ; _printf_core + 622
        0x00003434:    2030        0       MOVS     r0,#0x30
        0x00003436:    465a        ZF      MOV      r2,r11
        0x00003438:    990f        ..      LDR      r1,[sp,#0x3c]
        0x0000343a:    4790        .G      BLX      r2
        0x0000343c:    1c76        v.      ADDS     r6,r6,#1
        0x0000343e:    f1b80100    ....    SUBS     r1,r8,#0
        0x00003442:    f1a80801    ....    SUB      r8,r8,#1
        0x00003446:    dcf5        ..      BGT      0x3434 ; _printf_core + 612
        0x00003448:    e005        ..      B        0x3456 ; _printf_core + 646
        0x0000344a:    f8190b01    ....    LDRB     r0,[r9],#1
        0x0000344e:    465a        ZF      MOV      r2,r11
        0x00003450:    990f        ..      LDR      r1,[sp,#0x3c]
        0x00003452:    4790        .G      BLX      r2
        0x00003454:    1c76        v.      ADDS     r6,r6,#1
        0x00003456:    9908        ..      LDR      r1,[sp,#0x20]
        0x00003458:    1e48        H.      SUBS     r0,r1,#1
        0x0000345a:    9008        ..      STR      r0,[sp,#0x20]
        0x0000345c:    2900        .)      CMP      r1,#0
        0x0000345e:    dcf4        ..      BGT      0x344a ; _printf_core + 634
        0x00003460:    1c64        d.      ADDS     r4,r4,#1
        0x00003462:    e6c4        ..      B        0x31ee ; _printf_core + 30
    $d
        0x00003464:    00012809    .(..    DCD    75785
        0x00003468:    33323130    0123    DCD    858927408
        0x0000346c:    37363534    4567    DCD    926299444
        0x00003470:    62613938    89ab    DCD    1650538808
        0x00003474:    66656463    cdef    DCD    1717920867
        0x00003478:    00000000    ....    DCD    0
        0x0000347c:    33323130    0123    DCD    858927408
        0x00003480:    37363534    4567    DCD    926299444
        0x00003484:    42413938    89AB    DCD    1111570744
        0x00003488:    46454443    CDEF    DCD    1178944579
        0x0000348c:    00000000    ....    DCD    0
    $t
    i._sputc
    _sputc
        0x00003490:    680a        .h      LDR      r2,[r1,#0]
        0x00003492:    1c53        S.      ADDS     r3,r2,#1
        0x00003494:    600b        .`      STR      r3,[r1,#0]
        0x00003496:    7010        .p      STRB     r0,[r2,#0]
        0x00003498:    4770        pG      BX       lr
        0x0000349a:    0000        ..      MOVS     r0,r0
    $d.realdata
    .constdata
    TaskListTbl
        0x0000349c:    0000044f    O...    DCD    1103
        0x000034a0:    00003504    .5..    DCD    13572
        0x000034a4:    00000032    2...    DCD    50
        0x000034a8:    00000000    ....    DCD    0
        0x000034ac:    00000003    ....    DCD    3
        0x000034b0:    00000000    ....    DCD    0
    .constdata
        0x000034b4:    00b71b00    ....    DCD    12000000
        0x000034b8:    00000000    ....    DCD    0
        0x000034bc:    00008000    ....    DCD    32768
        0x000034c0:    01518000    ..Q.    DCD    22118400
        0x000034c4:    00b71b00    ....    DCD    12000000
        0x000034c8:    00000000    ....    DCD    0
        0x000034cc:    00008000    ....    DCD    32768
        0x000034d0:    01518000    ..Q.    DCD    22118400
        0x000034d4:    00b71b00    ....    DCD    12000000
        0x000034d8:    00000000    ....    DCD    0
        0x000034dc:    00008000    ....    DCD    32768
        0x000034e0:    01518000    ..Q.    DCD    22118400
    .constdata
        0x000034e4:    00b71b00    ....    DCD    12000000
        0x000034e8:    00008000    ....    DCD    32768
        0x000034ec:    00000000    ....    DCD    0
        0x000034f0:    00000000    ....    DCD    0
        0x000034f4:    00000000    ....    DCD    0
        0x000034f8:    00002710    .'..    DCD    10000
        0x000034fc:    00000000    ....    DCD    0
        0x00003500:    01518000    ..Q.    DCD    22118400
    .conststring
        0x00003504:    5f44454c    LED_    DCD    1598309708
        0x00003508:    52455355    USER    DCD    1380275029
        0x0000350c:    00004649    IF..    DCD    17993
    Region$$Table$$Base
        0x00003510:    00003530    05..    DCD    13616
        0x00003514:    20000000    ...     DCD    536870912
        0x00003518:    000000f4    ....    DCD    244
        0x0000351c:    000031b0    .1..    DCD    12720
        0x00003520:    00003624    $6..    DCD    13860
        0x00003524:    200000f4    ...     DCD    536871156
        0x00003528:    0000257c    |%..    DCD    9596
        0x0000352c:    000031c0    .1..    DCD    12736
    Region$$Table$$Limit

** Section #2 'RW_IRAM1' (SHT_PROGBITS) [SHF_ALLOC + SHF_WRITE]
    Size   : 244 bytes (alignment 4)
    Address: 0x20000000


** Section #3 'RW_IRAM1' (SHT_NOBITS) [SHF_ALLOC + SHF_WRITE]
    Size   : 9596 bytes (alignment 8)
    Address: 0x200000f4


** Section #4 '.debug_abbrev' (SHT_PROGBITS)
    Size   : 1476 bytes


** Section #5 '.debug_frame' (SHT_PROGBITS)
    Size   : 6656 bytes


** Section #6 '.debug_info' (SHT_PROGBITS)
    Size   : 81296 bytes


** Section #7 '.debug_line' (SHT_PROGBITS)
    Size   : 20688 bytes


** Section #8 '.debug_loc' (SHT_PROGBITS)
    Size   : 16352 bytes


** Section #9 '.debug_macinfo' (SHT_PROGBITS)
    Size   : 739724 bytes


** Section #10 '.debug_pubnames' (SHT_PROGBITS)
    Size   : 4331 bytes


** Section #11 '.symtab' (SHT_SYMTAB)
    Size   : 10448 bytes (alignment 4)
    String table #12 '.strtab'
    Last local symbol no. 329


** Section #12 '.strtab' (SHT_STRTAB)
    Size   : 10252 bytes


** Section #13 '.note' (SHT_NOTE)
    Size   : 28 bytes (alignment 4)


** Section #14 '.comment' (SHT_PROGBITS)
    Size   : 28224 bytes


** Section #15 '.shstrtab' (SHT_STRTAB)
    Size   : 156 bytes


